(dp1
S'random_state'
p2
ccopy_reg
_reconstructor
p3
(ctextmorph.edit_model.training_run
RandomState
p4
c__builtin__
object
p5
NtRp6
(dp7
S'np'
p8
(S'MT19937'
p9
cnumpy.core.multiarray
_reconstruct
p10
(cnumpy
ndarray
p11
(I0
tS'b'
tRp12
(I1
(I624
tcnumpy
dtype
p13
(S'u4'
I0
I1
tRp14
(I3
S'<'
NNNI-1
I-1
I0
tbI00
S'A\n,\x01\xf2\x00J<LD2\xfc\x90\x08\xd6l\xb5h\x97vE\x87\xe0b\xad\xf2\x86\xb8\xb8Ct#\xc6\xb8mJ\xb4\xdce\xd9\xfd\xe8\n\xbeh\x95g\x0c\x11\xd6\x04\xf2x\xcbn7Y9sb\x83\xbfex\xb0\xa6\x95\xf4lq\\\xd2\xf8\xee\x83\xb8F\x7f\xff~\x9d\xe4\xf7\xfd.\xfe\x93h+\x13t\xefN\xd3\xdd`\x95\x18z\xf8\xd19fF\x89\xabL\xa0\xbbh\xba~[2m\xa5\xf4\xd0C\x9d\x1a\xc0\xf9\x02\x10<n\x02\xe7\xbb\x08\x84\x0b\x9d\x06O.\xe05\x1aZc\xe2\x0ej\x88D\xc2\xf3\xd9\xab\xf1\xd3\xb5\r\x9e\\s\xc8h\xcf\xc1\xea\xc5r\xb2F:o\x91\xae)\x86W\xca?\xd5\xe1H\xa1)\x89y \xcc\xe5\x8a\x81>\xc9\x95\xce\x88\x86x\xdc\xd4\x0c\xe7B|B\xca\x9flpT"\xf7H\x05r\xd3a=&\xaf\xef5n\xf6\x04 :$\xf0\xc2\xd4\x13\xab\xa4\xc2\xc5\xd1\xf6\x9e\xe3\x9d"\xeb\t\xae\x140\xafK\xb33G\rh\xa7-2\xd7\xba\xed3\x00\x1fm\xf4\xc1m\xa0\x82>`\xea\xf6Fhj\x8cj\x12\\\xfc\x00\xac72\x8bO\xd3JI\x19\xf1\x9e\x91=\xd1\xd5\xe3\xf1\x80\xf2\rg\xa4\xf4\x06MG\x02x\x02\x8e[\xa6\xff\xef& \xe8\xe8>\xc9\x05\x1f\xf5\xa1\x93RG\xa3&\xa2pX!+\x0b\x0f\x83\xa8\xc3\xf4\x1aD\xf1\xd1\xa8\x9d\xfcM\x11z\x96\xd3U\x12e\x18\xe0\x9c\x15 \x08@\xb7\xe5$9\x8d5\x0c\n\xc8\xc6z`(\xf9a>\x0exm=\x0f\x82r&.\xf1o\xca\xa4h\xd4Ow$\xa4\\\xe4\xbf\xcf\x9f\x1d\xa2\xea)\x1e\x9eR\xe8p\xf2bt\xf9\x1d\xceP\x19d\x9c\xc8:$x\xe9\xec\xa8m\x86\xadw\xbc\xa0\xa83\xeaA\r\xfe\x8cR\x12OY\xfb\xcf\x03\x98\x99\xf0\x8b\xae\xbf\xcc\xc9q\x94U{b\xb8Jk\x01\xa9b\x1b\xb5\xc9\xc1\x08\xb4I\xafE\xb5W<\t\x82\x85N\x12\x1c43\xb8e\x97\x88\x1f\xc8\xbd#B\xf2\x90\xc9)\xd1\x96^\x845CaxtA\xea\xd1R^\\\xce\xa0x\xbe\xba\xa0\x96\xad\xe1\xa3\x1b\x80\x86\x85nN\x86\x17\x06\xa5\xa4V\xc7$Gu\xba\x15[\xbc#-R+\x89\x86R\x94`6\xaa;7P,cj@\xe0\xac\x99\xe1!S\x9c\x0b\xb3\x14l\x95Q:\xee\x8cFL\xe2`\x84\xb4+\x14Uig\x89\xfe\x88\xc6M\xda\x98.\x973\xe4\x02\xc1kRJ\x18\xdd\xb4\x85\x8bP\x9cE\xa4\xa2\xdc\xfc\x81C\xbe\x82d"OS\x85]\nb\xea\xb9\x90\x06k9\x9d\x92\xf9\xd1\x12h\xf2\xbe\x9d\x19 P\xdb\x0c\xb5\xb7\xa0j\xc8\x96\x19\xc7e\xaa\xf6y`N\xa7\xcc\x8c~/\x1ae\xde\xa8\x15FZ\xcc\xd1uM\n\x9e,Y\xfd\xb4\x1a+\xdeA`\xb7\xcaS_\x17\xc3\xbb\xbc\x8a\xebeH\x04\xcd\xc5R\x8c\xd7\xe4\xb2EIbc\xc3\xc2\x89\xd4\x1e\xda@hK\x83\xb0\x9c\xd4g\xacv\xca\xd06Z\x11_\x91S\xecN\xa9\xeb_\x0e\xc0\x1d\xcb\xf9D\xa0\xd3\xe8\xcc\xe0\xee\x81\xa1\xd9\xac-\xeehSm\xdb\xd4^B\xb7\xa5+.9\xb6g\\>k\x82\xb6b(\x88\x05\xc7V\\\xedG-+\x86\xb0\xb2\x8e`\xe0(\xcb\x8dv\xee\xea\x8aI\xafn\xd7&C\xb6n\xa5v\xba\x81\x8d\xf1~b\n6\x87\x87/t\x8cG\xf1\x1dy&^\xfe\xeb\x8f\xcdC\x14P\x89\xc8N\xfd\x1a\xfa\xe5$T\x8cQVP\xfbU\xe9\x9f s\xbe]\x1fz\xbe\x04\xb1}\xd6\x9d\xb5\xa0@ *ipn\x06R\xf1\xc9\xdb8\xe8]i\xe4XL8\x9d\xfa\x9cO{=T\xf8\xdc\xa7\xa7\xf1\x9bD\x15\xef\x15~W\xf1\x96s\xb8VR!\xf0\xf1\t\xde\x8fG\xa9\x11\xd8\xd1\xc1\x06J`\xa1\xa2\\\xd5\x1f\x9f\x8e\xf4o[\x8aP\xb1\xed\xeb\x7f\xa0\x19C\xa6\xaf\x80>\xa55\x00\x18{\\\xa7\x82\xff\xad\xe3\xbd:\x9ej@\xd7\x02\x95\xe7\xbc\xc4\xc8\x9bg\xcd\xa17h>\'\x07\x03u\xfe\xff\xc4\x9b\x1a\x05\xda\x08\xbaX\x83\x16\xdd\xe2k?y\xd9\xc4\x1e\x9d\x04\xe7+\xcfc\x9a\x82(\x8fN\xe8\xde\xa4\xd49\xfd\xbcT^\x82:O\xea\xb9\xa4\x8e\x1cw\xd7\xc9\xc0h\x83b\x8bA\xf3\xf3\xde\xc5?}\xef\x7f\x10=/\xcd\x1a\x17\xf4\x84\xa1\x81C\xf1\x86\xd4+\xfd|\xa6jS\xaeG\xd1\xba\xf3\xb5\xc9\xaf\xfd|S${\xdd\xfexN\xe1\xe3\xda\xb0\xe7+\xb5\xec#a\xc7F\xbev\x03\xf5F6\x00\xe4\xeb\x96\xf4\t\xcf\xdeE\x84\xfa\xba8U\x80\xcbo\xb45\xa0\xc7\x1b\x92\xe4\xb4%\x18\xa3h\xe7\xeb\x82:\xc7D\xdb\xe3\x1a\xb6e\xfbo\xaa\x0b\xa1\xc6\x8c\x95.\xf2\xc0k/\x1b\xf5\xf9\x89\x93Q\xe4\xf8\x82\x85\xadJ\xa4\xdb\xbc\n\xff\xdbB\x0e\xad\x1c\xb2\x8b)\xe6\xbbU\x02Q\x83\xcc\xc4\r\'!\x04\xdbO\x00\xd5t\x92\x8a*\xed\x85\x98\xd6\xab}P\xfa;\x18!\xf5d.\x9c-$\x00n\xefN\xa8"s\xc7\xe4\xa7\t\xe4\rzl\x16\x8e\xcf\x13\x1c\r\xb1\xd8\xa4\x8a\x8d\x1f3*\xb3\xa5m\\>\xfe\xafS\xcf\xb4\x02\x82\xb8.3\t6&\x1e*@\x8b.?\xcf k\xaf\x19e\xea\xbdC+\x1b>\x19-\x91gm\x81\n\xc3\x8f\xe7]\xdb\x03p\tB\xbf\x861\x8cd\x0b2t\xca_\xfa\x96\x88\xca\x1d\x1d\xe2\x05\x95,\xad<\xf1\xd5\xb5\x0e\xdb\x035"\xab\x872\x80\xa3n\xc0\x0c\xcc-\xc6\x19\xabR\xd05\xac\xf5.\xbe\xe4\xb5T\xd0\x7f\xd07d=z\x9b\x17\x8e\x81\x86\xbb_\xbeS\xc5\xdbWd\xbe\xe0\xda\xbb;\x0e\xd9\x9f}\x97\x1e\xa0-\x07\xd8\xa5\xa9\x8b\x06v\xd5aF\xceY&\xc4V\xc8\xee\xeb\xbd\x05\x80\xc6\xb50\x8eE\xc1\xa0\x16\xb5[\xcd\xbe\x06\xbd4\xf2\x85C\xdbA\x9cxA\x03)\xd5\x86i\x9d0q\xa5G\xf8e\x016,\x05\xb8\xe7\x12\xd7:F?\xf9\xbf\xd9\x88\xb4,~R\xaf9\xce\xd1\xf6,{\x83\xbc\x88\xbfp\xdd\x8c/\x8b\x13w\xfb\xd7K\xb4\xeex\xb4\xb7?"R\xa5\xear\x97\xc6{\xd7d\xa6lp\n[\x162L\x90>\xc0\xd2\xf8d\xe1y\xbb\xb5\xfd\xe7\xfeO\xe7]|\xb4\xc2q\xc4\x9dL2Y\x96Pm \x00\xb1T\xa5\xcb\xef\x9e\x0c\x0bJ\xfa\x90\xc4\xbf\xec6\x16\xde\xb2\xe9\x97\xb6\xd3\xae\x86\xb2\rR\xdf\xb1\xdb\xa6\xa2tJP\xe0\xf4\xac\x9eQkb\x11\xa4`~\x16\xd4\x97\xbd\t\x84="\xdc\xc1$\xb7\xd4-T\x9a\xcc\xca\xcf\x97\x84\xb2_\xf0\xe2\xa7D\xf3\x8d\x88]|\x15\xe3\xe9O\xb8p{w\xa2\xcdAZ.8\x08*q\xc3\xa16\x16\x8a\xb1\xeb\xb7G(\xec\xd1\xb2\x9b\x8b\x8a&u\x9d\xb3F>\xee\x05\x1ch\x8ca\xb8-A\xa02f\xeb\xf2\xe4Y]\xad\x14\xd6`Bp\xc8\xf5\xcas^Q\xbd\xb2\x02F,\xb79\x18)\x08\x8a\x0e2+Gp\xecAm\xb9Z\xe5M\x01\x80\xa8=!\xaa*\xed\xd4Q\xca\xdbR\xa2\x10\xf5\xe4\xc9*\x04\x1b\xf5\xa5\xd0\xa6\x141\x0ex)\xf3<\xc0\x12J*\xe1@\x8dX\x84\\I6ow\x17\xac\x92\xb0s@\xb4\'\xfdo2\xdf\xf7W\x8b~\x1d\xb0\n\xaen\xe0t\xfeo\x1a\xe3\xe2a/o\xedg\xa7\r\xef\x9d\xf5&\xe4\xb0\xa8ca\xf2\xc5A>\xfe\x00C\x86 \xb2d\xdb\x02keI\xba\x92/y\x852&\x1c\xf0\xa6\x1bR\x84\xe7\xa5\xc9!-\xc8\xcb\xeeo\x16\xc5\x88\xa2\x8bM^\xbe\xae\x84\x19D\xc4\xb8\x93\xedT\xb5\xed\xd9\x8f\xd9\xd2\xb7LJg\x8d\xd9Y\xcc\xf6\xd4Y\x9c\xe0\xc4\xb5\xda\x0c8d\xb6\x12\x89T\x92\xdc\x82me(a7W\x80\x81e\xea\xea\xaf\xf8\xc8,\xd6,X\x958\x02\x8f\x86\x8e\x9b\xbf\xfaE\xc8\x87}\xfc\xb4\xc4\x9a6\x8ab\xe1\xb6\xd6\xe0#2\xac\x86\xdf%)\xcd$\xba\xcb\xfaiP\xa0\xca\x90b\x03\xae\x9eP2\x9e\xf7\x85=\x8d\xca\xc1V[{\xe5PU\x17l`\xd0\xd2\xb5GV\xdc\xc6)\xc4\x8f\x7fmU\x19\x0c\xac\x9b\xe7\xbc\x97\x8b2\xcbh\xc1\xe4\x020&?!u^u\x92\r\xb5h\xfc\x01>\xf6s0%\xa8\'?\xf2\xe5z\x8fI\xebC\x0fz\x0f\x05\\\xa5\xbc1\x0fA\xac\xc1\x19\x91\x84o\\\x1d*\'\xc6J!\xfe\xbc{\x17\x97\x87=\xbe\x1a5o<U\x08\x959\x80\x96\xff\x18\x01\xf6\xa4\x7f""\xee\n\xdf\xa6\xcaP9\x82h\xd5g\x1d\x93\xc7\xa8\x0c\xc8\x94\x19\'J\xcf*=\x03\xd3y\xf0\xd61`\x97kjL`\xeb\xa3p5\xe0ExO\xdfT\xd3\xde\xd5\x15\xb7\xf9\xe6\xb7\xee6\xfd\x07\xa4\xaf\x826R\x14\xe0\x91X\x9c\xe4\xb5\xc6x\x1e\xce\x94\x18\x93\x0fz\xc3\x14\xa1Exp\xcb\xd1\xeb\xd5B\x99]\x7f\xdebX\x18\xe3\xfa\xac\xb0\x88\xb8:c\'\x9c\x87\xa1en5MJw4\x1e\x98\x902\x13\x1d\x04\xe32\xab\xdf+4\xc7\xa3\xf1\xdf\xb0\xd2Z\x0f\xb2ZVI\xda\x84{\xf5\xe3B\xec,\xed;\xb3\x0f\xbf\x03\x1f\xee\xdb\x00t\xab\x97\xfe\xe9\x88{\xe5\xb9s\x93\xe9Bs\x9e\xcf\xecq\x8dHC\xe9\xed\xf9"\xbf\'\xa7\xdazG\xa1yTT\xc0\xfcT\x90r\x0c\x7fp\xadW\xb2\xdf8\x96\xf2\xb0\xb6.e~\x0f\x15\xed\xbc\x82\xfa\xb4\x03v\x95k0\xa2@D]\x03>\xe5\xb0b\x1b\x97\xa1\xe0*\xc1\x04\x80\xb7\r\x01\x96u\x83&GKDO\xb9\xe0(\x7fH\xd6\xc3\xb3\x87\xba\x89\x0b\xfd+s\xfe\xe9\xda!\xa1\x82\xa6\xb74Pw\xf6\xfdz8\xc4\x81J\x81\x02)4q"\xf7g\x0c\x07k\xe4(\xdb\xc3\xe4I\xf5\x1b\xc4\xc4\xf8\xf5\xcb\xf3\x07\x8d\xaaF\x12\xf1\x1fl\x9ew\xedP\xeb\x0e\xf8\xe5\xe8\xc9!\xd8pD`Q\xde\x05Vv\xc1\xda\xa3\x08\x9d\xd3\xe5\x7f^R\xa9\x7f\xec\\@\xad\xd3\x17\xd5g2\x06\x8d9\xf57\x8a\x1a`\xd5I\xea\xbaV\tE\xd2\xee\xad\x00\xf6Ez\x9f7X\x089\xf6\xb3j\xa4\x91P\xffEw\xb3\xad#\x88\x1a\x03\x87|\xe6\xce\xfa\xa6o\xf0\xc8\xa7fE@\x87:\x0c\xa1\xb0\xf5\x81\xa3JN'
tbI309
I1
F1.0904726248700063
tp15
sS'py'
p16
(I3
(L3839071905L
L2658898576L
L3545067981L
L15509603L
L1331941607L
L1453540142L
L3300759487L
L958077670L
L216406353L
L4147145608L
L841690196L
L270733448L
L1759638865L
L3432285459L
L2845404889L
L3538215924L
L3474307014L
L1795521636L
L1143312953L
L3075582942L
L1610094423L
L1247622071L
L1910226518L
L2060691498L
L596641508L
L3722144679L
L2422042705L
L3868463675L
L2158893077L
L4135699190L
L1080646041L
L3426692245L
L783006134L
L2037006328L
L1964767986L
L2302635174L
L1823498311L
L1072105580L
L1804807089L
L3344588827L
L2446014364L
L3279996295L
L225005144L
L2606380053L
L2610707416L
L592689058L
L3675784274L
L749191282L
L2513917204L
L1127934461L
L3345783685L
L342349698L
L2632801585L
L713918986L
L262841970L
L2551962170L
L1923158989L
L443060995L
L3425123059L
L272615177L
L2241865983L
L856404839L
L809084399L
L2875251361L
L632666511L
L948055627L
L2687423308L
L905024048L
L4180843973L
L2161467170L
L4070239006L
L1653004033L
L2407868976L
L2719906161L
L2787213474L
L2170720181L
L2279942075L
L3766708429L
L3431446411L
L2529915318L
L1588605513L
L3655232717L
L1671133255L
L4077352989L
L1028652123L
L4285146996L
L707365205L
L2368580074L
L1861095595L
L2028256084L
L2902985563L
L1215896845L
L3029401036L
L4276342678L
L4046772959L
L3941814619L
L403511788L
L229250151L
L4110283365L
L1077830772L
L1740086385L
L3822844488L
L3604249269L
L3853277812L
L1086310581L
L2654863773L
L4071512439L
L3734037871L
L2527694988L
L91723900L
L3132434320L
L1016314263L
L417421267L
L2696434803L
L3328666294L
L509329558L
L1056663444L
L2854912044L
L3241069078L
L1160020493L
L4140378427L
L841940934L
L92053752L
L3934384058L
L1464046175L
L3120111867L
L1175815212L
L1330536176L
L3050708774L
L1720392362L
L46070918L
L3937040219L
L1179832484L
L1563744345L
L1564292940L
L1176481340L
L621192557L
L1286160644L
L683924369L
L2283818323L
L968572454L
L2388679877L
L450937741L
L438311323L
L2975951072L
L3807963640L
L342797492L
L875195711L
L382809136L
L2695077164L
L2084400503L
L3958237378L
L971859391L
L1503319630L
L3258769109L
L1190396013L
L2077048692L
L1806244216L
L637710909L
L1029495859L
L1652844417L
L4085747198L
L3080222230L
L310303389L
L1199210526L
L3703310423L
L2675882977L
L4186818381L
L2223681867L
L1999889242L
L24928118L
L3859420794L
L2738227593L
L737180861L
L2645723364L
L1538986288L
L3282085246L
L4080492960L
L1563711503L
L2570587148L
L1861159293L
L2941239325L
L1220909824L
L3555163371L
L1122680413L
L1962136184L
L2584810001L
L2907177714L
L1235409232L
L3031117028L
L3225068979L
L2376571297L
L2207198429L
L1246325628L
L522598365L
L659667845L
L959610885L
L2600324881L
L1192150242L
L3221366554L
L1104957974L
L750261241L
L3260753446L
L1161843154L
L2894685536L
L2000987772L
L418244214L
L3726112146L
L3010014875L
L955739498L
L912170335L
L2428069397L
L865258435L
L1655965926L
L3334897753L
L155314951L
L3039452839L
L1639477762L
L180560137L
L3102516048L
L3029898363L
L674025378L
L1143872690L
L4289227914L
L2104193458L
L4111614783L
L2350515793L
L1800911754L
L2098610068L
L1471160497L
L536838346L
L2906599336L
L1365676409L
L2346647966L
L207514574L
L2078728515L
L321344275L
L3372642115L
L1336768323L
L980275132L
L3507318301L
L2341237068L
L4083513998L
L1336198386L
L755679802L
L2557896632L
L2119558937L
L1586328346L
L3796764053L
L1511810718L
L239960460L
L1807796745L
L693707046L
L3848297880L
L3459349168L
L3047761904L
L2708485032L
L3680123711L
L3874580121L
L129440991L
L2618805473L
L2393247185L
L3903086977L
L3443382832L
L2100862737L
L425063790L
L3009509427L
L3238279483L
L3061692789L
L2284182360L
L4144282400L
L1111196700L
L3783656190L
L2362172348L
L2889093409L
L3027146867L
L143503552L
L1305472734L
L446451621L
L2860208036L
L1226829248L
L1131605185L
L1050633580L
L1367443079L
L121932086L
L520290675L
L2575825358L
L2439525202L
L244364778L
L34639104L
L3735679705L
L2196576631L
L778217740L
L2521746736L
L2356001435L
L4262040782L
L1384040067L
L3610527247L
L3151053150L
L2622580277L
L1887322819L
L3302104130L
L2431616808L
L2152701978L
L2872721069L
L1516843459L
L2081542485L
L179859803L
L412848985L
L4156994729L
L1468047812L
L1440868111L
L1954770984L
L3430382466L
L2654989594L
L3655341966L
L1756457052L
L3972548054L
L165410461L
L545304000L
L67459242L
L3428007856L
L1277544472L
L1035719279L
L3644780968L
L1227425165L
L2000463208L
L650232788L
L3434818508L
L2933690582L
L550754099L
L2632353915L
L2953774213L
L3148603886L
L1727758013L
L1122719657L
L3462030314L
L4226271167L
L2877943733L
L2485963798L
L2655616292L
L1511914761L
L1838457595L
L4087400924L
L1419053937L
L3239969070L
L1009562989L
L3212207512L
L299147263L
L3363185095L
L3988622033L
L2535976403L
L1712245898L
L2437189343L
L4154189158L
L2235787660L
L1914776526L
L1756553054L
L2394537017L
L3688738115L
L1733094131L
L991384378L
L2682342960L
L2209427707L
L4240715390L
L3902024766L
L1703393963L
L3362048300L
L1430868846L
L4212416349L
L1242893307L
L2979762272L
L2601257232L
L3850842995L
L2852039130L
L3011025247L
L3220571884L
L2088155851L
L4043926703L
L1404370430L
L2621709955L
L1222127705L
L2985794708L
L1232296497L
L1478535680L
L370516073L
L603373978L
L2188794795L
L610664268L
L2233340861L
L3014859680L
L4118547882L
L937074243L
L10888438L
L2364972750L
L950177153L
L2078288747L
L3683398303L
L731961560L
L1428841090L
L2065204015L
L3941479697L
L1166158245L
L553670053L
L3754403464L
L2033069363L
L4132090691L
L587482609L
L1036924707L
L4227933445L
L3434674249L
L1319047557L
L4185507934L
L3033510622L
L2905196821L
L4270231420L
L750639869L
L4195761839L
L1634404328L
L3202579402L
L2538720437L
L3634469846L
L3910504743L
L2742859496L
L2423606901L
L3443190227L
L2171435478L
L1084172745L
L2015622682L
L833553745L
L3697876553L
L1452589274L
L2109824094L
L1046167685L
L639172210L
L792198448L
L574309736L
L3551913648L
L1084249285L
L1324193477L
L2474390694L
L2909257700L
L3873056255L
L2350432893L
L2842557283L
L3478557244L
L2375318351L
L3194786001L
L1368723611L
L4253654394L
L4263490658L
L917741827L
L3114120672L
L2940235293L
L1421793845L
L1992993303L
L1603229486L
L828082275L
L862779123L
L3264839782L
L1163197952L
L1402181996L
L2890417896L
L2108166L
L1863036484L
L1260445099L
L4155373957L
L2195306518L
L3791214457L
L3538632513L
L3877679999L
L492199669L
L1682088152L
L4067084206L
L2260265074L
L305956634L
L8407398L
L2344428230L
L3490799381L
L2457442985L
L1432823982L
L3880637490L
L271707856L
L3752041711L
L4140925874L
L4250989926L
L4236675016L
L573415574L
L4211289730L
L2954931328L
L3346796302L
L3696676912L
L1091802676L
L2915577008L
L3360611957L
L4130161899L
L352349862L
L3742201338L
L4274524424L
L2605043441L
L1784682167L
L2650003695L
L3614512930L
L2510967325L
L3314658960L
L4160870998L
L4222877742L
L3753684364L
L2789341053L
L695303380L
L4254590444L
L2202692660L
L3706569280L
L2577539340L
L2452114975L
L3930806861L
L2188032314L
L1696554977L
L3964384180L
L988455734L
L2883950677L
L3916107009L
L2119451904L
L462959108L
L1367506562L
L2185152099L
L2590449867L
L2557440598L
L3919224222L
L662411673L
L232957640L
L1972425991L
L2754341705L
L1463071519L
L1198768242L
L2183270921L
L3794566949L
L3588151714L
L3695110738L
L4017984892L
L3309766704L
L1111678018L
L2969749523L
L172555387L
L3996798911L
L686688812L
L4260380532L
L2582790107L
L2998946122L
L1708261153L
L898266231L
L858035496L
L1558146943L
L802706948L
L1908631124L
L2130860984L
L2770234561L
L292015259L
L3313575360L
L3189033610L
L3612953948L
L1897542792L
L349799481L
L3056907427L
L729597086L
L2618229463L
L2510481142L
L2681251545L
L3764259631L
L274155150L
L4249478132L
L3813613545L
L403478826L
L1175055298L
L1718007203L
L3054736084L
L1245554907L
L1871190362L
L1606131674L
L324965884L
L2424960880L
L3201177081L
L1585173920L
L3401135575L
L2492664146L
L3085011570L
L3272416805L
L1912847109L
L2512512727L
L3509797191L
L1031963969L
L2218932621L
L1389372562L
L1471128112L
L1867692149L
L553629434L
L1181641318L
L1629162423L
L2402150706L
L1288199375L
L144823777L
L2058959134L
L105140865L
L127748697L
L2548046125L
L2193356753L
L4069254107L
L3665595035L
L3846968233L
L213016784L
L50833366L
L3587633254L
L3388954751L
L2763390157L
L1142966505L
L179886857L
L1835849395L
L3236044317L
L4046777786L
L4111692842L
L2025644204L
L1494977520L
L3631449241L
L3498135780L
L444L
tNtp17
sS'torch'
p18
ctorch._utils
_rebuild_tensor
p19
(ctorch
ByteStorage
p20
((lp21
I0
aI0
aI0
aI0
aI0
aI0
aI0
aI0
aI29
aI2
aI0
aI0
aI1
aI0
aI0
aI0
aI84
aI0
aI0
aI0
aI0
aI0
aI0
aI0
aI137
aI186
aI254
aI247
aI0
aI0
aI0
aI0
aI56
aI81
aI235
aI157
aI0
aI0
aI0
aI0
aI247
aI219
aI216
aI58
aI0
aI0
aI0
aI0
aI243
aI104
aI212
aI185
aI0
aI0
aI0
aI0
aI2
aI88
aI30
aI248
aI0
aI0
aI0
aI0
aI35
aI94
aI222
aI211
aI0
aI0
aI0
aI0
aI37
aI251
aI91
aI90
aI0
aI0
aI0
aI0
aI124
aI8
aI140
aI216
aI0
aI0
aI0
aI0
aI7
aI152
aI231
aI37
aI0
aI0
aI0
aI0
aI243
aI229
aI165
aI209
aI0
aI0
aI0
aI0
aI190
aI136
aI249
aI101
aI0
aI0
aI0
aI0
aI132
aI209
aI242
aI73
aI0
aI0
aI0
aI0
aI118
aI48
aI198
aI185
aI0
aI0
aI0
aI0
aI191
aI152
aI191
aI240
aI0
aI0
aI0
aI0
aI60
aI152
aI37
aI218
aI0
aI0
aI0
aI0
aI21
aI224
aI145
aI212
aI0
aI0
aI0
aI0
aI45
aI140
aI133
aI35
aI0
aI0
aI0
aI0
aI84
aI239
aI253
aI154
aI0
aI0
aI0
aI0
aI88
aI234
aI165
aI9
aI0
aI0
aI0
aI0
aI113
aI137
aI198
aI121
aI0
aI0
aI0
aI0
aI3
aI224
aI240
aI17
aI0
aI0
aI0
aI0
aI83
aI33
aI193
aI11
aI0
aI0
aI0
aI0
aI206
aI49
aI10
aI41
aI0
aI0
aI0
aI0
aI153
aI16
aI236
aI151
aI0
aI0
aI0
aI0
aI68
aI40
aI124
aI186
aI0
aI0
aI0
aI0
aI179
aI98
aI238
aI188
aI0
aI0
aI0
aI0
aI18
aI1
aI208
aI201
aI0
aI0
aI0
aI0
aI231
aI199
aI132
aI74
aI0
aI0
aI0
aI0
aI11
aI170
aI36
aI238
aI0
aI0
aI0
aI0
aI135
aI45
aI234
aI1
aI0
aI0
aI0
aI0
aI199
aI154
aI213
aI143
aI0
aI0
aI0
aI0
aI123
aI43
aI136
aI44
aI0
aI0
aI0
aI0
aI222
aI85
aI214
aI135
aI0
aI0
aI0
aI0
aI204
aI222
aI41
aI226
aI0
aI0
aI0
aI0
aI169
aI230
aI71
aI11
aI0
aI0
aI0
aI0
aI99
aI203
aI111
aI30
aI0
aI0
aI0
aI0
aI134
aI110
aI51
aI29
aI0
aI0
aI0
aI0
aI86
aI33
aI123
aI51
aI0
aI0
aI0
aI0
aI113
aI58
aI223
aI31
aI0
aI0
aI0
aI0
aI187
aI157
aI52
aI89
aI0
aI0
aI0
aI0
aI140
aI111
aI141
aI57
aI0
aI0
aI0
aI0
aI255
aI231
aI68
aI167
aI0
aI0
aI0
aI0
aI213
aI40
aI78
aI36
aI0
aI0
aI0
aI0
aI42
aI154
aI64
aI162
aI0
aI0
aI0
aI0
aI228
aI231
aI135
aI44
aI0
aI0
aI0
aI0
aI175
aI163
aI112
aI145
aI0
aI0
aI0
aI0
aI75
aI87
aI122
aI54
aI0
aI0
aI0
aI0
aI159
aI26
aI56
aI253
aI0
aI0
aI0
aI0
aI246
aI237
aI146
aI5
aI0
aI0
aI0
aI0
aI202
aI229
aI201
aI213
aI0
aI0
aI0
aI0
aI133
aI48
aI232
aI151
aI0
aI0
aI0
aI0
aI171
aI157
aI144
aI13
aI0
aI0
aI0
aI0
aI80
aI19
aI58
aI54
aI0
aI0
aI0
aI0
aI99
aI40
aI177
aI68
aI0
aI0
aI0
aI0
aI97
aI109
aI50
aI243
aI0
aI0
aI0
aI0
aI227
aI61
aI142
aI241
aI0
aI0
aI0
aI0
aI247
aI161
aI224
aI200
aI0
aI0
aI0
aI0
aI75
aI7
aI9
aI103
aI0
aI0
aI0
aI0
aI153
aI200
aI190
aI247
aI0
aI0
aI0
aI0
aI175
aI242
aI121
aI252
aI0
aI0
aI0
aI0
aI100
aI30
aI212
aI200
aI0
aI0
aI0
aI0
aI153
aI53
aI136
aI34
aI0
aI0
aI0
aI0
aI251
aI222
aI74
aI241
aI0
aI0
aI0
aI0
aI161
aI197
aI31
aI33
aI0
aI0
aI0
aI0
aI95
aI85
aI22
aI102
aI0
aI0
aI0
aI0
aI81
aI119
aI160
aI122
aI0
aI0
aI0
aI0
aI11
aI47
aI200
aI155
aI0
aI0
aI0
aI0
aI242
aI15
aI81
aI61
aI0
aI0
aI0
aI0
aI221
aI1
aI4
aI148
aI0
aI0
aI0
aI0
aI45
aI98
aI187
aI17
aI0
aI0
aI0
aI0
aI59
aI104
aI163
aI168
aI0
aI0
aI0
aI0
aI25
aI2
aI2
aI230
aI0
aI0
aI0
aI0
aI231
aI111
aI88
aI42
aI0
aI0
aI0
aI0
aI46
aI212
aI168
aI182
aI0
aI0
aI0
aI0
aI214
aI216
aI219
aI166
aI0
aI0
aI0
aI0
aI181
aI46
aI229
aI133
aI0
aI0
aI0
aI0
aI86
aI157
aI13
aI237
aI0
aI0
aI0
aI0
aI88
aI89
aI85
aI45
aI0
aI0
aI0
aI0
aI151
aI48
aI84
aI250
aI0
aI0
aI0
aI0
aI67
aI189
aI145
aI94
aI0
aI0
aI0
aI0
aI35
aI106
aI172
aI28
aI0
aI0
aI0
aI0
aI41
aI231
aI195
aI13
aI0
aI0
aI0
aI0
aI240
aI203
aI126
aI5
aI0
aI0
aI0
aI0
aI96
aI49
aI221
aI97
aI0
aI0
aI0
aI0
aI76
aI27
aI147
aI205
aI0
aI0
aI0
aI0
aI111
aI76
aI110
aI214
aI0
aI0
aI0
aI0
aI248
aI63
aI205
aI201
aI0
aI0
aI0
aI0
aI97
aI88
aI251
aI101
aI0
aI0
aI0
aI0
aI35
aI163
aI34
aI143
aI0
aI0
aI0
aI0
aI151
aI4
aI171
aI47
aI0
aI0
aI0
aI0
aI207
aI207
aI218
aI230
aI0
aI0
aI0
aI0
aI218
aI242
aI34
aI55
aI0
aI0
aI0
aI0
aI94
aI11
aI151
aI249
aI0
aI0
aI0
aI0
aI131
aI125
aI42
aI85
aI0
aI0
aI0
aI0
aI181
aI77
aI152
aI218
aI0
aI0
aI0
aI0
aI193
aI52
aI136
aI137
aI0
aI0
aI0
aI0
aI34
aI119
aI221
aI69
aI0
aI0
aI0
aI0
aI105
aI142
aI244
aI5
aI0
aI0
aI0
aI0
aI185
aI125
aI165
aI2
aI0
aI0
aI0
aI0
aI234
aI46
aI56
aI31
aI0
aI0
aI0
aI0
aI70
aI23
aI6
aI224
aI0
aI0
aI0
aI0
aI119
aI236
aI184
aI230
aI0
aI0
aI0
aI0
aI70
aI38
aI96
aI191
aI0
aI0
aI0
aI0
aI119
aI190
aI123
aI15
aI0
aI0
aI0
aI0
aI25
aI112
aI164
aI65
aI0
aI0
aI0
aI0
aI141
aI118
aI125
aI207
aI0
aI0
aI0
aI0
aI87
aI102
aI45
aI51
aI0
aI0
aI0
aI0
aI217
aI82
aI26
aI87
aI0
aI0
aI0
aI0
aI173
aI122
aI84
aI249
aI0
aI0
aI0
aI0
aI221
aI211
aI41
aI41
aI0
aI0
aI0
aI0
aI72
aI45
aI222
aI212
aI0
aI0
aI0
aI0
aI140
aI70
aI239
aI212
aI0
aI0
aI0
aI0
aI182
aI211
aI47
aI171
aI0
aI0
aI0
aI0
aI76
aI96
aI0
aI127
aI0
aI0
aI0
aI0
aI78
aI254
aI184
aI230
aI0
aI0
aI0
aI0
aI194
aI212
aI120
aI146
aI0
aI0
aI0
aI0
aI17
aI12
aI143
aI239
aI0
aI0
aI0
aI0
aI60
aI112
aI142
aI82
aI0
aI0
aI0
aI0
aI7
aI122
aI239
aI84
aI0
aI0
aI0
aI0
aI186
aI4
aI172
aI203
aI0
aI0
aI0
aI0
aI138
aI174
aI5
aI87
aI0
aI0
aI0
aI0
aI128
aI42
aI59
aI127
aI0
aI0
aI0
aI0
aI241
aI102
aI114
aI212
aI0
aI0
aI0
aI0
aI130
aI196
aI71
aI239
aI0
aI0
aI0
aI0
aI68
aI79
aI68
aI118
aI0
aI0
aI0
aI0
aI184
aI189
aI144
aI252
aI0
aI0
aI0
aI0
aI223
aI158
aI29
aI107
aI0
aI0
aI0
aI0
aI103
aI210
aI173
aI169
aI0
aI0
aI0
aI0
aI125
aI217
aI200
aI213
aI0
aI0
aI0
aI0
aI33
aI211
aI174
aI199
aI0
aI0
aI0
aI0
aI46
aI209
aI20
aI39
aI0
aI0
aI0
aI0
aI70
aI113
aI126
aI185
aI0
aI0
aI0
aI0
aI251
aI129
aI184
aI142
aI0
aI0
aI0
aI0
aI234
aI23
aI190
aI217
aI0
aI0
aI0
aI0
aI82
aI240
aI148
aI73
aI0
aI0
aI0
aI0
aI220
aI111
aI155
aI74
aI0
aI0
aI0
aI0
aI90
aI93
aI23
aI107
aI0
aI0
aI0
aI0
aI119
aI152
aI5
aI151
aI0
aI0
aI0
aI0
aI178
aI231
aI127
aI128
aI0
aI0
aI0
aI0
aI185
aI85
aI148
aI20
aI0
aI0
aI0
aI0
aI202
aI143
aI207
aI94
aI0
aI0
aI0
aI0
aI139
aI242
aI160
aI191
aI0
aI0
aI0
aI0
aI3
aI66
aI204
aI122
aI0
aI0
aI0
aI0
aI148
aI157
aI239
aI246
aI0
aI0
aI0
aI0
aI96
aI18
aI185
aI66
aI0
aI0
aI0
aI0
aI192
aI213
aI30
aI19
aI0
aI0
aI0
aI0
aI209
aI62
aI154
aI124
aI0
aI0
aI0
aI0
aI172
aI14
aI223
aI192
aI0
aI0
aI0
aI0
aI89
aI247
aI178
aI96
aI0
aI0
aI0
aI0
aI92
aI136
aI121
aI124
aI0
aI0
aI0
aI0
aI136
aI106
aI191
aI240
aI0
aI0
aI0
aI0
aI215
aI202
aI119
aI202
aI0
aI0
aI0
aI0
aI57
aI22
aI43
aI197
aI0
aI0
aI0
aI0
aI209
aI203
aI175
aI118
aI0
aI0
aI0
aI0
aI78
aI198
aI54
aI173
aI0
aI0
aI0
aI0
aI187
aI55
aI153
aI191
aI0
aI0
aI0
aI0
aI80
aI252
aI203
aI193
aI0
aI0
aI0
aI0
aI157
aI54
aI183
aI210
aI0
aI0
aI0
aI0
aI251
aI71
aI49
aI23
aI0
aI0
aI0
aI0
aI15
aI10
aI177
aI91
aI0
aI0
aI0
aI0
aI99
aI142
aI92
aI27
aI0
aI0
aI0
aI0
aI222
aI240
aI32
aI87
aI0
aI0
aI0
aI0
aI42
aI227
aI112
aI212
aI0
aI0
aI0
aI0
aI66
aI136
aI68
aI51
aI0
aI0
aI0
aI0
aI206
aI73
aI43
aI138
aI0
aI0
aI0
aI0
aI245
aI246
aI131
aI103
aI0
aI0
aI0
aI0
aI22
aI175
aI0
aI121
aI0
aI0
aI0
aI0
aI53
aI208
aI223
aI237
aI0
aI0
aI0
aI0
aI227
aI244
aI254
aI36
aI0
aI0
aI0
aI0
aI109
aI198
aI179
aI122
aI0
aI0
aI0
aI0
aI93
aI226
aI3
aI29
aI0
aI0
aI0
aI0
aI218
aI118
aI59
aI2
aI0
aI0
aI0
aI0
aI238
aI111
aI187
aI139
aI0
aI0
aI0
aI0
aI102
aI49
aI231
aI86
aI0
aI0
aI0
aI0
aI156
aI90
aI208
aI185
aI0
aI0
aI0
aI0
aI49
aI2
aI25
aI130
aI0
aI0
aI0
aI0
aI150
aI30
aI136
aI219
aI0
aI0
aI0
aI0
aI40
aI57
aI20
aI36
aI0
aI0
aI0
aI0
aI89
aI86
aI97
aI160
aI0
aI0
aI0
aI0
aI242
aI191
aI245
aI240
aI0
aI0
aI0
aI0
aI158
aI94
aI17
aI69
aI0
aI0
aI0
aI0
aI170
aI224
aI161
aI201
aI0
aI0
aI0
aI0
aI77
aI139
aI66
aI3
aI0
aI0
aI0
aI0
aI208
aI208
aI229
aI23
aI0
aI0
aI0
aI0
aI74
aI122
aI180
aI242
aI0
aI0
aI0
aI0
aI35
aI130
aI248
aI137
aI0
aI0
aI0
aI0
aI193
aI175
aI220
aI46
aI0
aI0
aI0
aI0
aI64
aI13
aI99
aI123
aI0
aI0
aI0
aI0
aI247
aI116
aI193
aI141
aI0
aI0
aI0
aI0
aI0
aI149
aI168
aI50
aI0
aI0
aI0
aI0
aI114
aI204
aI182
aI119
aI0
aI0
aI0
aI0
aI23
aI55
aI212
aI193
aI0
aI0
aI0
aI0
aI143
aI198
aI110
aI253
aI0
aI0
aI0
aI0
aI212
aI46
aI63
aI91
aI0
aI0
aI0
aI0
aI111
aI117
aI189
aI232
aI0
aI0
aI0
aI0
aI159
aI49
aI240
aI58
aI0
aI0
aI0
aI0
aI228
aI155
aI135
aI223
aI0
aI0
aI0
aI0
aI214
aI101
aI18
aI233
aI0
aI0
aI0
aI0
aI141
aI80
aI159
aI251
aI0
aI0
aI0
aI0
aI172
aI134
aI98
aI245
aI0
aI0
aI0
aI0
aI138
aI79
aI38
aI252
aI0
aI0
aI0
aI0
aI4
aI191
aI236
aI57
aI0
aI0
aI0
aI0
aI126
aI133
aI209
aI186
aI0
aI0
aI0
aI0
aI24
aI116
aI91
aI16
aI0
aI0
aI0
aI0
aI188
aI54
aI244
aI212
aI0
aI0
aI0
aI0
aI201
aI173
aI2
aI173
aI0
aI0
aI0
aI0
aI35
aI39
aI57
aI148
aI0
aI0
aI0
aI0
aI58
aI185
aI45
aI91
aI0
aI0
aI0
aI0
aI247
aI171
aI227
aI50
aI0
aI0
aI0
aI0
aI37
aI84
aI90
aI154
aI0
aI0
aI0
aI0
aI118
aI43
aI230
aI170
aI0
aI0
aI0
aI0
aI173
aI198
aI58
aI192
aI0
aI0
aI0
aI0
aI152
aI212
aI189
aI17
aI0
aI0
aI0
aI0
aI231
aI255
aI11
aI41
aI0
aI0
aI0
aI0
aI64
aI59
aI51
aI159
aI0
aI0
aI0
aI0
aI107
aI71
aI236
aI125
aI0
aI0
aI0
aI0
aI218
aI152
aI155
aI19
aI0
aI0
aI0
aI0
aI30
aI62
aI170
aI140
aI0
aI0
aI0
aI0
aI139
aI77
aI206
aI167
aI0
aI0
aI0
aI0
aI160
aI197
aI223
aI66
aI0
aI0
aI0
aI0
aI61
aI3
aI62
aI99
aI0
aI0
aI0
aI0
aI192
aI119
aI206
aI13
aI0
aI0
aI0
aI0
aI10
aI106
aI181
aI77
aI0
aI0
aI0
aI0
aI200
aI24
aI149
aI239
aI0
aI0
aI0
aI0
aI189
aI108
aI31
aI156
aI0
aI0
aI0
aI0
aI115
aI133
aI53
aI43
aI0
aI0
aI0
aI0
aI120
aI24
aI152
aI59
aI0
aI0
aI0
aI0
aI117
aI55
aI178
aI242
aI0
aI0
aI0
aI0
aI10
aI88
aI111
aI224
aI0
aI0
aI0
aI0
aI167
aI82
aI21
aI152
aI0
aI0
aI0
aI0
aI137
aI32
aI152
aI137
aI0
aI0
aI0
aI0
aI102
aI70
aI26
aI18
aI0
aI0
aI0
aI0
aI252
aI111
aI232
aI202
aI0
aI0
aI0
aI0
aI77
aI143
aI187
aI11
aI0
aI0
aI0
aI0
aI21
aI149
aI20
aI51
aI0
aI0
aI0
aI0
aI91
aI97
aI59
aI100
aI0
aI0
aI0
aI0
aI14
aI105
aI88
aI173
aI0
aI0
aI0
aI0
aI219
aI78
aI25
aI10
aI0
aI0
aI0
aI0
aI106
aI88
aI151
aI17
aI0
aI0
aI0
aI0
aI8
aI9
aI244
aI185
aI0
aI0
aI0
aI0
aI230
aI80
aI1
aI85
aI0
aI0
aI0
aI0
aI217
aI178
aI45
aI81
aI0
aI0
aI0
aI0
aI148
aI15
aI2
aI139
aI0
aI0
aI0
aI0
aI112
aI202
aI215
aI121
aI0
aI0
aI0
aI0
aI98
aI217
aI81
aI92
aI0
aI0
aI0
aI0
aI191
aI209
aI9
aI41
aI0
aI0
aI0
aI0
aI26
aI126
aI97
aI95
aI0
aI0
aI0
aI0
aI151
aI166
aI223
aI10
aI0
aI0
aI0
aI0
aI236
aI41
aI142
aI9
aI0
aI0
aI0
aI0
aI212
aI119
aI93
aI253
aI0
aI0
aI0
aI0
aI134
aI71
aI229
aI173
aI0
aI0
aI0
aI0
aI96
aI5
aI91
aI181
aI0
aI0
aI0
aI0
aI229
aI151
aI173
aI98
aI0
aI0
aI0
aI0
aI49
aI92
aI169
aI171
aI0
aI0
aI0
aI0
aI163
aI172
aI212
aI203
aI0
aI0
aI0
aI0
aI148
aI79
aI96
aI231
aI0
aI0
aI0
aI0
aI159
aI154
aI224
aI156
aI0
aI0
aI0
aI0
aI133
aI28
aI141
aI66
aI0
aI0
aI0
aI0
aI48
aI53
aI18
aI196
aI0
aI0
aI0
aI0
aI77
aI191
aI41
aI2
aI0
aI0
aI0
aI0
aI169
aI52
aI107
aI181
aI0
aI0
aI0
aI0
aI209
aI252
aI23
aI136
aI0
aI0
aI0
aI0
aI48
aI224
aI93
aI57
aI0
aI0
aI0
aI0
aI57
aI232
aI181
aI169
aI0
aI0
aI0
aI0
aI220
aI139
aI23
aI160
aI0
aI0
aI0
aI0
aI82
aI199
aI245
aI109
aI0
aI0
aI0
aI0
aI229
aI145
aI252
aI176
aI0
aI0
aI0
aI0
aI253
aI14
aI115
aI247
aI0
aI0
aI0
aI0
aI154
aI40
aI184
aI183
aI0
aI0
aI0
aI0
aI7
aI17
aI145
aI211
aI0
aI0
aI0
aI0
aI41
aI106
aI173
aI167
aI0
aI0
aI0
aI0
aI48
aI73
aI8
aI161
aI0
aI0
aI0
aI0
aI251
aI221
aI227
aI243
aI0
aI0
aI0
aI0
aI140
aI188
aI74
aI138
aI0
aI0
aI0
aI0
aI33
aI77
aI87
aI240
aI0
aI0
aI0
aI0
aI33
aI54
aI208
aI240
aI0
aI0
aI0
aI0
aI213
aI103
aI49
aI225
aI0
aI0
aI0
aI0
aI232
aI91
aI182
aI191
aI0
aI0
aI0
aI0
aI221
aI209
aI234
aI43
aI0
aI0
aI0
aI0
aI188
aI147
aI194
aI91
aI0
aI0
aI0
aI0
aI52
aI15
aI0
aI207
aI0
aI0
aI0
aI0
aI76
aI251
aI94
aI164
aI0
aI0
aI0
aI0
aI147
aI255
aI174
aI142
aI0
aI0
aI0
aI0
aI181
aI165
aI76
aI187
aI0
aI0
aI0
aI0
aI159
aI45
aI84
aI253
aI0
aI0
aI0
aI0
aI132
aI253
aI248
aI56
aI0
aI0
aI0
aI0
aI162
aI194
aI152
aI135
aI0
aI0
aI0
aI0
aI101
aI145
aI145
aI131
aI0
aI0
aI0
aI0
aI190
aI154
aI245
aI166
aI0
aI0
aI0
aI0
aI221
aI73
aI96
aI2
aI0
aI0
aI0
aI0
aI29
aI60
aI6
aI224
aI0
aI0
aI0
aI0
aI165
aI194
aI49
aI93
aI0
aI0
aI0
aI0
aI143
aI30
aI83
aI139
aI0
aI0
aI0
aI0
aI247
aI144
aI60
aI28
aI0
aI0
aI0
aI0
aI252
aI54
aI51
aI254
aI0
aI0
aI0
aI0
aI136
aI255
aI213
aI37
aI0
aI0
aI0
aI0
aI0
aI81
aI53
aI130
aI0
aI0
aI0
aI0
aI85
aI190
aI45
aI243
aI0
aI0
aI0
aI0
aI143
aI137
aI156
aI66
aI0
aI0
aI0
aI0
aI1
aI123
aI63
aI218
aI0
aI0
aI0
aI0
aI224
aI65
aI136
aI158
aI0
aI0
aI0
aI0
aI190
aI87
aI242
aI60
aI0
aI0
aI0
aI0
aI12
aI206
aI241
aI37
aI0
aI0
aI0
aI0
aI186
aI117
aI73
aI6
aI0
aI0
aI0
aI0
aI198
aI97
aI237
aI101
aI0
aI0
aI0
aI0
aI191
aI102
aI199
aI233
aI0
aI0
aI0
aI0
aI59
aI163
aI103
aI3
aI0
aI0
aI0
aI0
aI29
aI232
aI185
aI85
aI0
aI0
aI0
aI0
aI159
aI64
aI104
aI121
aI0
aI0
aI0
aI0
aI35
aI181
aI51
aI90
aI0
aI0
aI0
aI0
aI217
aI40
aI150
aI116
aI0
aI0
aI0
aI0
aI27
aI239
aI52
aI101
aI0
aI0
aI0
aI0
aI125
aI75
aI204
aI135
aI0
aI0
aI0
aI0
aI143
aI237
aI54
aI36
aI0
aI0
aI0
aI0
aI104
aI248
aI93
aI79
aI0
aI0
aI0
aI0
aI176
aI171
aI245
aI239
aI0
aI0
aI0
aI0
aI200
aI161
aI242
aI145
aI0
aI0
aI0
aI0
aI71
aI95
aI184
aI124
aI0
aI0
aI0
aI0
aI116
aI223
aI160
aI116
aI0
aI0
aI0
aI0
aI212
aI31
aI158
aI105
aI0
aI0
aI0
aI0
aI16
aI151
aI98
aI176
aI0
aI0
aI0
aI0
aI96
aI69
aI21
aI52
aI0
aI0
aI0
aI0
aI101
aI150
aI229
aI92
aI0
aI0
aI0
aI0
aI198
aI129
aI139
aI115
aI0
aI0
aI0
aI0
aI52
aI65
aI35
aI54
aI0
aI0
aI0
aI0
aI215
aI80
aI208
aI83
aI0
aI0
aI0
aI0
aI154
aI109
aI20
aI58
aI0
aI0
aI0
aI0
aI21
aI82
aI222
aI238
aI0
aI0
aI0
aI0
aI8
aI131
aI201
aI40
aI0
aI0
aI0
aI0
aI176
aI248
aI34
aI145
aI0
aI0
aI0
aI0
aI11
aI67
aI7
aI145
aI0
aI0
aI0
aI0
aI222
aI209
aI187
aI173
aI0
aI0
aI0
aI0
aI226
aI213
aI141
aI250
aI0
aI0
aI0
aI0
aI213
aI215
aI184
aI128
aI0
aI0
aI0
aI0
aI77
aI226
aI114
aI57
aI0
aI0
aI0
aI0
aI7
aI63
aI98
aI152
aI0
aI0
aI0
aI0
aI208
aI81
aI197
aI120
aI0
aI0
aI0
aI0
aI110
aI29
aI190
aI255
aI0
aI0
aI0
aI0
aI129
aI10
aI233
aI30
aI0
aI0
aI0
aI0
aI45
aI93
aI62
aI166
aI0
aI0
aI0
aI0
aI234
aI56
aI45
aI24
aI0
aI0
aI0
aI0
aI130
aI204
aI199
aI61
aI0
aI0
aI0
aI0
aI129
aI212
aI172
aI68
aI0
aI0
aI0
aI0
aI200
aI114
aI239
aI81
aI0
aI0
aI0
aI0
aI43
aI55
aI13
aI13
aI0
aI0
aI0
aI0
aI91
aI72
aI232
aI140
aI0
aI0
aI0
aI0
aI101
aI253
aI114
aI73
aI0
aI0
aI0
aI0
aI12
aI155
aI160
aI166
aI0
aI0
aI0
aI0
aI191
aI248
aI97
aI211
aI0
aI0
aI0
aI0
aI171
aI49
aI192
aI67
aI0
aI0
aI0
aI0
aI125
aI113
aI19
aI110
aI0
aI0
aI0
aI0
aI89
aI93
aI52
aI197
aI0
aI0
aI0
aI0
aI166
aI235
aI76
aI61
aI0
aI0
aI0
aI0
aI144
aI226
aI186
aI167
aI0
aI0
aI0
aI0
aI148
aI93
aI227
aI107
aI0
aI0
aI0
aI0
aI184
aI159
aI68
aI103
aI0
aI0
aI0
aI0
aI198
aI11
aI166
aI221
aI0
aI0
aI0
aI0
aI175
aI250
aI54
aI41
aI0
aI0
aI0
aI0
aI180
aI26
aI143
aI205
aI0
aI0
aI0
aI0
aI244
aI37
aI12
aI3
aI0
aI0
aI0
aI0
aI234
aI202
aI68
aI201
aI0
aI0
aI0
aI0
aI52
aI51
aI11
aI0
aI0
aI0
aI0
aI0
aI174
aI39
aI167
aI112
aI0
aI0
aI0
aI0
aI122
aI88
aI108
aI157
aI0
aI0
aI0
aI0
aI25
aI93
aI210
aI75
aI0
aI0
aI0
aI0
aI153
aI153
aI32
aI235
aI0
aI0
aI0
aI0
aI175
aI145
aI96
aI152
aI0
aI0
aI0
aI0
aI165
aI208
aI12
aI165
aI0
aI0
aI0
aI0
aI41
aI121
aI75
aI225
aI0
aI0
aI0
aI0
aI11
aI186
aI188
aI42
aI0
aI0
aI0
aI0
aI12
aI89
aI39
aI111
aI0
aI0
aI0
aI0
aI216
aI110
aI172
aI119
aI0
aI0
aI0
aI0
aI174
aI44
aI212
aI141
aI0
aI0
aI0
aI0
aI14
aI242
aI8
aI34
aI0
aI0
aI0
aI0
aI196
aI88
aI87
aI92
aI0
aI0
aI0
aI0
aI27
aI144
aI125
aI122
aI0
aI0
aI0
aI0
aI61
aI197
aI76
aI159
aI0
aI0
aI0
aI0
aI47
aI197
aI150
aI45
aI0
aI0
aI0
aI0
aI185
aI7
aI222
aI239
aI0
aI0
aI0
aI0
aI78
aI75
aI136
aI237
aI0
aI0
aI0
aI0
aI84
aI233
aI154
aI35
aI0
aI0
aI0
aI0
aI118
aI38
aI240
aI186
aI0
aI0
aI0
aI0
aI105
aI120
aI234
aI223
aI0
aI0
aI0
aI0
aI218
aI98
aI4
aI66
aI0
aI0
aI0
aI0
aI125
aI195
aI165
aI235
aI0
aI0
aI0
aI0
aI207
aI156
aI90
aI249
aI0
aI0
aI0
aI0
aI142
aI16
aI120
aI218
aI0
aI0
aI0
aI0
aI121
aI45
aI91
aI170
aI0
aI0
aI0
aI0
aI255
aI113
aI59
aI204
aI0
aI0
aI0
aI0
aI52
aI250
aI158
aI213
aI0
aI0
aI0
aI0
aI20
aI47
aI98
aI229
aI0
aI0
aI0
aI0
aI49
aI192
aI205
aI68
aI0
aI0
aI0
aI0
aI203
aI59
aI78
aI177
aI0
aI0
aI0
aI0
aI133
aI0
aI226
aI76
aI0
aI0
aI0
aI0
aI194
aI19
aI47
aI8
aI0
aI0
aI0
aI0
aI159
aI187
aI123
aI196
aI0
aI0
aI0
aI0
aI77
aI221
aI109
aI18
aI0
aI0
aI0
aI0
aI182
aI78
aI53
aI129
aI0
aI0
aI0
aI0
aI171
aI166
aI232
aI230
aI0
aI0
aI0
aI0
aI218
aI212
aI142
aI200
aI0
aI0
aI0
aI0
aI196
aI83
aI190
aI205
aI0
aI0
aI0
aI0
aI150
aI102
aI241
aI75
aI0
aI0
aI0
aI0
aI164
aI26
aI208
aI34
aI0
aI0
aI0
aI0
aI186
aI80
aI177
aI35
aI0
aI0
aI0
aI0
aI19
aI43
aI210
aI46
aI0
aI0
aI0
aI0
aI166
aI241
aI6
aI142
aI0
aI0
aI0
aI0
aI232
aI7
aI59
aI183
aI0
aI0
aI0
aI0
aI187
aI22
aI106
aI196
aI0
aI0
aI0
aI0
aI217
aI198
aI215
aI43
aI0
aI0
aI0
aI0
aI157
aI234
aI99
aI90
aI0
aI0
aI0
aI0
aI8
aI239
aI47
aI106
aI0
aI0
aI0
aI0
aI207
aI112
aI89
aI67
aI0
aI0
aI0
aI0
aI205
aI66
aI1
aI131
aI0
aI0
aI0
aI0
aI181
aI210
aI158
aI210
aI0
aI0
aI0
aI0
aI176
aI117
aI211
aI221
aI0
aI0
aI0
aI0
aI209
aI146
aI55
aI31
aI0
aI0
aI0
aI0
aI126
aI84
aI72
aI28
aI0
aI0
aI0
aI0
aI58
aI1
aI35
aI226
aI0
aI0
aI0
aI0
aI237
aI64
aI31
aI97
aI0
aI0
aI0
aI0
aI122
aI43
aI193
aI165
aI0
aI0
aI0
aI0
aI130
aI240
aI62
aI100
aI0
aI0
aI0
aI0
aI75
aI82
aI98
aI8
aI0
aI0
aI0
aI0
aI152
aI164
aI115
aI111
aI0
aI0
aI0
aI0
aI61
aI116
aI232
aI105
aI0
aI0
aI0
aI0
aI165
aI151
aI168
aI135
aI0
aI0
aI0
aI0
aI142
aI149
aI109
aI234
aI0
aI0
aI0
aI0
aI118
aI15
aI65
aI136
aI0
aI0
aI0
aI0
aI142
aI121
aI218
aI159
aI0
aI0
aI0
aI0
aI47
aI58
aI177
aI109
aI0
aI0
aI0
aI0
aI128
aI234
aI15
aI90
aI0
aI0
aI0
aI0
aI220
aI142
aI99
aI205
aI0
aI0
aI0
aI0
aI144
aI12
aI224
aI33
aI0
aI0
aI0
aI0
aI45
aI80
aI131
aI136
aI0
aI0
aI0
aI0
aI119
aI18
aI194
aI129
aI0
aI0
aI0
aI0
aI95
aI97
aI79
aI128
aI0
aI0
aI0
aI0
aI26
aI157
aI251
aI91
aI0
aI0
aI0
aI0
aI148
aI173
aI239
aI195
aI0
aI0
aI0
aI0
aI108
aI91
aI160
aI56
aI0
aI0
aI0
aI0
aI88
aI155
aI209
aI199
aI0
aI0
aI0
aI0
aI19
aI55
aI72
aI44
aI0
aI0
aI0
aI0
aI56
aI15
aI176
aI135
aI0
aI0
aI0
aI0
aI5
aI252
aI170
aI84
aI0
aI0
aI0
aI0
aI166
aI148
aI68
aI77
aI0
aI0
aI0
aI0
aI52
aI28
aI86
aI26
aI0
aI0
aI0
aI0
aI91
aI100
aI82
aI65
aI0
aI0
aI0
aI0
aI88
aI219
aI154
aI58
aI0
aI0
aI0
aI0
aI28
aI190
aI27
aI183
aI0
aI0
aI0
aI0
aI147
aI95
aI30
aI197
aI0
aI0
aI0
aI0
aI131
aI69
aI2
aI138
aI0
aI0
aI0
aI0
aI24
aI53
aI15
aI34
aI0
aI0
aI0
aI0
aI105
aI74
aI75
aI116
aI0
aI0
aI0
aI0
aI239
aI22
aI228
aI58
aI0
aI0
aI0
aI0
aI176
aI36
aI81
aI201
aI0
aI0
aI0
aI0
aI2
aI25
aI116
aI34
aI0
aI0
aI0
aI0
aI233
aI95
aI117
aI193
aI0
aI0
aI0
aI0
aI241
aI211
aI93
aI178
aI0
aI0
aI0
aI0
aI96
aI106
aI85
aI74
aI0
aI0
aI0
aI0
aI7
aI210
aI163
aI203
aI0
aI0
aI0
aI0
aI65
aI145
aI160
aI144
aI0
aI0
aI0
aI0
aI222
aI33
aI39
aI19
aI0
aI0
aI0
aI0
aI100
aI44
aI94
aI202
aI0
aI0
aI0
aI0
aI52
aI134
aI230
aI62
aI0
aI0
aI0
aI0
aI229
aI109
aI69
aI33
aI0
aI0
aI0
aI0
aI26
aI194
aI217
aI124
aI0
aI0
aI0
aI0
aI35
aI55
aI216
aI238
aI0
aI0
aI0
aI0
aI82
aI83
aI206
aI179
aI0
aI0
aI0
aI0
aI184
aI179
aI2
aI11
aI0
aI0
aI0
aI0
aI126
aI47
aI89
aI9
aI0
aI0
aI0
aI0
aI184
aI12
aI252
aI125
aI0
aI0
aI0
aI0
aI205
aI136
aI66
aI117
aI0
aI0
aI0
aI0
aI89
aI185
aI249
aI251
aI0
aI0
aI0
aI0
aI248
aI114
aI158
aI130
aI0
aI0
aI0
aI0
aI154
aI90
aI68
aI11
aI0
aI0
aI0
aI0
aI65
aI90
aI213
aI247
aI0
aI0
aI0
aI0
aI6
aI125
aI169
aI152
aI0
aI0
aI0
aI0
aI120
aI109
aI200
aI59
aI0
aI0
aI0
aI0
aI251
aI8
aI30
aI191
aI0
aI0
aI0
aI0
aI87
aI19
aI198
aI160
aI0
aI0
aI0
aI0
aI186
aI249
aI93
aI210
aI0
aI0
aI0
aI0
aI60
aI175
aI106
aI87
aI0
aI0
aI0
aI0
aI252
aI45
aI14
aI185
aI0
aI0
aI0
aI0
aI42
aI78
aI134
aI109
aI0
aI0
aI0
aI0
aI98
aI249
aI178
aI63
aI0
aI0
aI0
aI0
aI193
aI25
aI172
aI245
aI0
aI0
aI0
aI0
aI28
aI241
aI127
aI246
aI0
aI0
aI0
aI0
aI23
aI42
aI63
aI239
aI0
aI0
aI0
aI0
aI6
aI111
aI192
aI4
aI0
aI0
aI0
aI0
aI142
aI177
aI222
aI135
aI0
aI0
aI0
aI0
aI225
aI248
aI202
aI23
aI0
aI0
aI0
aI0
aI236
aI104
aI96
aI183
aI0
aI0
aI0
aI0
aI216
aI1
aI73
aI59
aI0
aI0
aI0
aI0
aI239
aI168
aI75
aI87
aI0
aI0
aI0
aI0
aI120
aI237
aI218
aI69
aI0
aI0
aI0
aI0
aI19
aI23
aI215
aI160
aI0
aI0
aI0
aI0
aI140
aI191
aI93
aI174
aI0
aI0
aI0
aI0
aI225
aI207
aI8
aI224
aI0
aI0
aI0
aI0
aI90
aI70
aI5
aI160
aI0
aI0
aI0
aI0
aI10
aI216
aI34
aI167
aI0
aI0
aI0
aI0
aI241
aI177
aI128
aI253
aI0
aI0
aI0
aI0
aI199
aI64
aI225
aI189
aI0
aI0
aI0
aI0
aI127
aI140
aI136
aI116
aI0
aI0
aI0
aI0
aI252
aI57
aI38
aI66
aI0
aI0
aI0
aI0
aI134
aI210
aI17
aI85
aI0
aI0
aI0
aI0
aI133
aI229
aI162
aI78
aI0
aI0
aI0
aI0
aI233
aI128
aI237
aI229
aI0
aI0
aI0
aI0
aI211
aI108
aI199
aI136
aI0
aI0
aI0
aI0
aI221
aI153
aI93
aI219
aI0
aI0
aI0
aI0
aI216
aI134
aI123
aI218
aI0
aI0
aI0
aI0
aI73
aI64
aI91
aI239
aI0
aI0
aI0
aI0
aI85
aI94
aI77
aI210
aI0
aI0
aI0
aI0
aI206
aI93
aI255
aI205
aI0
aI0
aI0
aI0
aI44
aI31
aI191
aI60
aI0
aI0
aI0
aI0
aI157
aI227
aI5
aI75
aI0
aI0
aI0
aI0
aI17
aI88
aI209
aI35
aI0
aI0
aI0
aI0
aI19
aI138
aI228
aI74
aI0
aI0
aI0
aI0
aI102
aI118
aI30
aI79
aI0
aI0
aI0
aI0
aI106
aI153
aI149
aI11
aI0
aI0
aI0
aI0
aI6
aI237
aI156
aI88
aI0
aI0
aI0
aI0
aI90
aI11
aI27
aI227
aI0
aI0
aI0
aI0
aI238
aI162
aI161
aI222
aI0
aI0
aI0
aI0
aI203
aI158
aI222
aI125
aI0
aI0
aI0
aI0
aI33
aI205
aI30
aI65
aI0
aI0
aI0
aI0
aI53
aI64
aI252
aI48
aI0
aI0
aI0
aI0
aI40
aI208
aI127
aI70
aI0
aI0
aI0
aI0
aI250
aI163
aI31
aI8
aI0
aI0
aI0
aI0
aI248
aI49
aI184
aI176
aI0
aI0
aI0
aI0
aI189
aI124
aI26
aI196
aI0
aI0
aI0
aI0
aI124
aI3
aI58
aI232
aI0
aI0
aI0
aI0
aI35
aI151
aI227
aI211
aI0
aI0
aI0
aI0
aI182
aI42
aI19
aI144
aI0
aI0
aI0
aI0
aI202
aI158
aI142
aI144
aI0
aI0
aI0
aI0
aI252
aI210
aI243
aI32
aI0
aI0
aI0
aI0
aI190
aI119
aI148
aI195
aI0
aI0
aI0
aI0
aI33
aI196
aI201
aI46
aI0
aI0
aI0
aI0
aI167
aI54
aI24
aI59
aI0
aI0
aI0
aI0
aI102
aI22
aI33
aI238
aI0
aI0
aI0
aI0
aI109
aI180
aI51
aI25
aI0
aI0
aI0
aI0
aI33
aI250
aI252
aI214
aI0
aI0
aI0
aI0
aI98
aI54
aI74
aI166
aI0
aI0
aI0
aI0
aI114
aI183
aI199
aI74
aI0
aI0
aI0
aI0
aI25
aI105
aI118
aI145
aI0
aI0
aI0
aI0
aI54
aI168
aI192
aI186
aI0
aI0
aI0
aI0
aI32
aI79
aI3
aI166
aI0
aI0
aI0
aI0
aI54
aI14
aI68
aI137
aI0
aI0
aI0
aI0
aI27
aI1
aI194
aI76
aI0
aI0
aI0
aI0
aI160
aI87
aI142
aI113
aI0
aI0
aI0
aI0
aI160
aI47
aI204
aI202
aI0
aI0
aI0
aI0
aI67
aI160
aI128
aI226
aI0
aI0
aI0
aI0
aI236
aI88
aI247
aI190
aI0
aI0
aI0
aI0
aI67
aI253
aI234
aI191
aI0
aI0
aI0
aI0
aI36
aI86
aI103
aI4
aI0
aI0
aI0
aI0
aI15
aI244
aI62
aI0
aI0
aI0
aI0
aI0
aI108
aI242
aI16
aI136
aI0
aI0
aI0
aI0
aI85
aI37
aI189
aI67
aI0
aI0
aI0
aI0
aI241
aI159
aI77
aI246
aI0
aI0
aI0
aI0
aI7
aI236
aI238
aI200
aI0
aI0
aI0
aI0
aI146
aI99
aI215
aI222
aI0
aI0
aI0
aI0
aI11
aI74
aI98
aI72
aI0
aI0
aI0
aI0
aI90
aI48
aI44
aI34
aI0
aI0
aI0
aI0
aI63
aI66
aI27
aI28
aI0
aI0
aI0
aI0
aI250
aI46
aI149
aI150
aI0
aI0
aI0
aI0
aI49
aI214
aI187
aI52
aI0
aI0
aI0
aI0
aI192
aI0
aI244
aI29
aI0
aI0
aI0
aI0
aI150
aI59
aI99
aI140
aI0
aI0
aI0
aI0
aI91
aI98
aI153
aI60
aI0
aI0
aI0
aI0
aI141
aI124
aI130
aI178
aI0
aI0
aI0
aI0
aI38
aI29
aI227
aI33
aI0
aI0
aI0
aI0
aI147
aI248
aI239
aI215
aI0
aI0
aI0
aI0
aI78
aI122
aI5
aI79
aI0
aI0
aI0
aI0
aI219
aI114
aI204
aI76
aI0
aI0
aI0
aI0
aI67
aI233
aI83
aI85
aI0
aI0
aI0
aI0
aI41
aI105
aI153
aI218
aI0
aI0
aI0
aI0
aI41
aI212
aI83
aI29
aI0
aI0
aI0
aI0
aI125
aI117
aI69
aI51
aI0
aI0
aI0
aI0
aI42
aI77
aI94
aI8
aI0
aI0
aI0
aI0
aI10
aI67
aI232
aI24
aI0
aI0
aI0
aI0
aI188
aI250
aI155
aI84
aI0
aI0
aI0
aI0
aI181
aI105
aI48
aI18
aI0
aI0
aI0
aI0
aI60
aI138
aI0
aI203
aI0
aI0
aI0
aI0
aI217
aI28
aI106
aI64
aI0
aI0
aI0
aI0
aI78
aI11
aI79
aI183
aI0
aI0
aI0
aI0
aI242
aI134
aI211
aI156
aI0
aI0
aI0
aI0
aI77
aI67
aI110
aI210
aI0
aI0
aI0
aI0
aI10
aI78
aI33
aI64
aI0
aI0
aI0
aI0
aI161
aI69
aI159
aI66
aI0
aI0
aI0
aI0
aI56
aI166
aI10
aI43
aI0
aI0
aI0
aI0
aI118
aI63
aI131
aI125
aI0
aI0
aI0
aI0
aI40
aI5
aI91
aI135
aI0
aI0
aI0
aI0
aI248
aI156
aI250
aI4
aI0
aI0
aI0
aI0
aI64
aI129
aI104
aI7
aI0
aI0
aI0
aI0
aI59
aI217
aI62
aI15
aI0
aI0
aI0
aI0
aI242
aI211
aI51
aI126
aI0
aI0
aI0
aI0
aI36
aI154
aI27
aI197
aI0
aI0
aI0
aI0
aI253
aI213
aI146
aI40
aI0
aI0
aI0
aI0
aI8
aI75
aI53
aI246
aI0
aI0
aI0
aI0
aI82
aI186
aI220
aI52
aI0
aI0
aI0
aI0
aI6
aI120
aI117
aI71
aI0
aI0
aI0
aI0
aI215
aI29
aI12
aI178
aI0
aI0
aI0
aI0
aI31
aI64
aI21
aI171
aI0
aI0
aI0
aI0
aI153
aI71
aI235
aI228
aI0
aI0
aI0
aI0
aI121
aI227
aI179
aI141
aI0
aI0
aI0
aI0
aI233
aI76
aI177
aI20
aI0
aI0
aI0
aI0
aI248
aI23
aI198
aI250
aI0
aI0
aI0
aI0
aI168
aI59
aI38
aI78
aI0
aI0
aI0
aI0
aI204
aI188
aI169
aI239
aI0
aI0
aI0
aI0
aI199
aI155
aI218
aI35
aI0
aI0
aI0
aI0
aI19
aI213
aI147
aI50
aI0
aI0
aI0
aI0
aI78
aI254
aI249
aI99
aI0
aI0
aI0
aI0
aI190
aI0
aI55
aI177
aI0
aI0
aI0
aI0
aI234
aI255
aI143
aI73
aI0
aI0
aI0
aI0
aI191
aI128
aI144
aI51
aI0
aI0
aI0
aI0
aI174
aI211
aI252
aI220
aI0
aI0
aI0
aI0
aI151
aI115
aI47
aI163
aI0
aI0
aI0
aI0
aI103
aI171
aI175
aI111
aI0
aI0
aI0
aI0
aI35
aI186
aI112
aI232
aI0
aI0
aI0
aI0
aI117
aI45
aI63
aI246
aI0
aI0
aI0
aI0
aI166
aI42
aI35
aI221
aI0
aI0
aI0
aI0
aI31
aI73
aI175
aI163
aI0
aI0
aI0
aI0
aI9
aI179
aI43
aI215
aI0
aI0
aI0
aI0
aI171
aI78
aI85
aI77
aI0
aI0
aI0
aI0
aI73
aI182
aI94
aI193
aI0
aI0
aI0
aI0
aI197
aI206
aI104
aI130
aI0
aI0
aI0
aI0
aI186
aI131
aI12
aI84
aI0
aI0
aI0
aI0
aI214
aI48
aI154
aI176
aI0
aI0
aI0
aI0
aI0
aI0
aI0
aI133
aI167
aI23
aI211
aI63
aI0
aI0
aI0
aI214
aI184
aI40
aI196
aI63
aI188
aI207
aI107
aI105
aI247
aI187
aI226
aI63
aI0
aI0
aI0
aI0
aI0
aI0
aI0
aI0
atRp22
I0
(L5048L
t(L1L
ttRp23
sbsS'train_steps'
p24
I100000
sS'max_grad_norm'
p25
F172.01752400675613
s.