(dp1
S'random_state'
p2
ccopy_reg
_reconstructor
p3
(ctextmorph.edit_model.training_run
RandomState
p4
c__builtin__
object
p5
NtRp6
(dp7
S'np'
p8
(S'MT19937'
p9
cnumpy.core.multiarray
_reconstruct
p10
(cnumpy
ndarray
p11
(I0
tS'b'
tRp12
(I1
(I624
tcnumpy
dtype
p13
(S'u4'
I0
I1
tRp14
(I3
S'<'
NNNI-1
I-1
I0
tbI00
S'\xf3\xb7w\xbf\x90Kw\x11\xb6\x8d\x99ekQ\xd5\\\xaby\x8c\x0bR\xb94\xd5\xb2\xc8X\x1a\xb7\x83\xc73\xc43\xfdWvpi\xb2j\x91\xd2\x96c\xf1\x00:\x89\xda\xd0\x99\x93{vSWg\x068\xa8\x90\x82\xbc\x15i\x11\xed\x90{\xe0\xe5}\xb6\xdb\xc9;\xdb\xeca\x9fK\xb0!`\x9d\xfa\x8e\x97Q(\xaf5\x98\xac\xd1SD\x18\x81fc\xb6\xb4\x08\x9b#8\xe2K{2@-\xb1j\x88\xc9\x14&\xb3\xe5V\xe8\xd7\xa9\xfcD\x87h\xf6\x11\x90*\xef\xf4\xc8ERA6\xa4)\x82\x83H\xfe\x0b\xda~+l\x9c\x9eN\x13\xf2\x05\x96\x03i\x14\x9d\xd7A\xc6f\x07\xa5\x02y\x8dd\xb8)Q\x1bPSR\x99^`rFz\x7fs\xc4\x12\xe3&m\xfd\xd8u\xf8\xe0r\r\xff\xa6y\xc5\x08\xcd\xc0Y\xe8\xfa\xad\n+\x131E\xd1\x98\xbdV\xfd\x9b\x90 \xee\x80Y\xd6\xcd\x12\x0e\x95\x9e\xe5Z\xb02+9%\xbb#\x84f\xaa\xdb\xde`r\xc1\xc8\x8e\xdf\xfe\x81\xf0\x08\xea4\'\xc9\xb2\xeb\xbf\xe3\xc6\x18\xfce)kv!o\xffg\xa3F\xb6{b\xfd\xca\x12\x97\x08I\xe1x\x9a \xc1M\xc1h\x10\xfc\x8eA\xa6\x9c\x08\xab\xa6z\xe3\x0f\xe9D\xa0\x13\xcd\xea\xc4J;4\t\x0e\x87\xd3\xe0!8)\xb30\xa0W\xb4/\x98\xaa\xfe7]\xc9<\xc3\x80\x80gU\x1e[5\x16\x1a\x11\xd8X\xaa\x0c\x96\x9e\xf9\xf7\xf9+fa\xa4\x9b\x9d\x88\xcd\xa8a\x82\xa60Y5\x1d>\x8d<\t\t\xf9X?\xe6rV3\x0f\t_\xaa\xe8 \xa1(\x96\xd1\xe5\x9c(|@\xcf\xae\x1b\xffx\xd0\xbb\x8c\xf8\xc8\xc6\xdd\xbb\xda\xce\xd0QGA\xc7$|&\xdf"\xc4sK\xd9F\xebn\x02\x9c\xc2\xc5\xb72\xec)\xd7\x17\xe4\x9c6\xa0:N\xae\xc7\xc5\x01/\xd98:\xed\x10\xfd\x86\x1c\xe9\xc8\x89.\xec\xd1\x0f\x85\x9c\xea\x8a\\\x01\xea\x80\xc6\xa2\xd0\xc5\xaa\xa4\xe2\x9a\x03&\x1d?\x875Vx\xf8\x1d\xe8My\xcc11\x8bb\x93\x82z\x8ca\xc2n\x9dY\xcaBA\xed/+b\xe7\x9eAY\xc7\x1a\xed\xa3\x8f\xebob\x88\xdeV\xda\x90\x8c,\x99\xa7\xec\xf1\x92\x05\xf9p\x9d-\x9c*\x0c\x05F\xbe,\xb2\x11\xd4\nq\xdb\x8d\x85\xef\x18\x0b\xbd^n\xb7\x00\xb3\x807 \xa8jB\x96 \xc5\x92\x1b\x9c\xad\xe5\xa0E\xae\xe5N\x83lda\xf6\x0c\x06lG\xdav\xb2-\xef\xe9\xf0\xdf\xd1\xdd\xbf\x9c\xd1\x95\xa3\xbd\x92\xfc\xf2\x1ca\xbaor\x17\r"(\x80=\x96\x9b\xa5\xa9.GV\x1f\xcb\x95d~\xf3\xb0\xfa\x1a\xe4\xba\xb5\xa4\x81K\xcf\xbcF;\xe29gk7&\x0f\xff\x0cC9O\xccf2\xf4d\xa6z\xb7N\x99\xf0\xb1\xe2\x88\r\xb2\x08\xff\x9e\xa5\xaa\'K \xe8o}\xfe\xdd\x08\xd7k\x03\x1b\x13`\x9d~\xb8\xbd\xdaP5C\xc5\x9e\xa8u\xda\xf9\x02\xd2\x07\x04QQ\xdb\x17XT&\x0f\xb9_\xa3Y\xda\x80w\x7fnALb;d\xb5\x90m\xde6MAs@\xd1\xef)\x19\x84\x08\x08\xa5F\xca\ry\xc8\x1b~\xc3\xdd\xbc~\xde.\xc1\xcb<f[@\xe9u/V\xaa\'u\x8c\x7f]\xe5\x99\xb8~\x9d\xd5eF\x1f\xf4\xd8\rXp\x17\x1b\\\xb17\x98\xc53U\xff\xa761\x89\xdc\x95\xd4\xfe\\P\xbbi;\xcf\x1d\x86s\xba\xb2E\xe99\xf1b\xe4\x9bi\t\xbeK\xa4\x99\xb0\xfbf\xe6p\x8f\xe8t\xef\x04\xe8<\x93,\xb1\xa9\xa84ck\x9f\xb1\xf0\xc0\xfe\xbbAoP\xb3\xc4\x85i\xe0\xe6\xc1\xfft9\xd2T@$ZXQ5\xc5mT\xd7\x95.\x9f\xf0k\xb7\'\xc6\xe3cX5\xc6\xae\x1aW(\x87\x0c H\x8a\x8b\x8b|*\x97\xd6\x845\xb2l\x10k\xb2\xe8xw\x95n?\xf2\x0e\xc7\xed\xd3\xe6(\xa7/\xc4\xe6p\x04\x85\x8f\x18\x19\x90?\xfe\xc0t\\\r}\xffe\x93\xed\xcd\x00\xbb\x91\x05\xd3\xc1\xce{\xb1\xeeH\xe1\x9b\xdb\xc8\xdd\xd1y~\xf9\xee\xba\xa9u\xd5\xf1\xef\xf2\x1c\xfe\xbc?\x16I\xce\x16\x93b\x93\xb2\x9d(\x97\x11\x8b\x9cw\n@Tf\x83\x08Z.B,\xef9\xe0}\x13\xed\xcaU";\x91K\xab\xcdE\xda1\x98\x17kAT#\xf3\xf0\xd5/tP\xdc\x1d\xabf\xcal\x9e\xe3\xfc@\x18\x94@\x1f\xfcsa\xf6Z\xbf\xe3\xc3(\x8cb\xb7I95\xe9\xdd;:i+-\xf2L\xc5\x0b\xc22\xc3.\x0f\x1a\xf4\x7f\xbaOQ\x82m\x08\x7fh\xba\xf6\xabf\rI\xa4\x12R`\xd3\xae\x1f\xe8;{2$\xd5#l\xfc4\x10B\xc6Z\x0f\xc3\x91\xdc\r\te\xe7+t\x82/\x92_q%/\xe1P\xfc\xae\xc0\x1bX\x01\x83T\x9f\xc5 T\xe3&\xfb\xbd\x1fZ\x10g\x99\xf6\x8b\x99\xd2\xaf\xb9\xe4\xe9\x9cz\x1ed(o\xcek\xa1a\x94\xa5\xda\x08\x00\xeb\x91\xf5v\xf2\x03\xe1I\xe8\xb6\x8f\xe7\xc3\x83\x1a\xd3\x05!\xc2\x04\xbc\x9d^\xcf\xec1\x18\tH\x92\xedi1\xab\xbc\xb1\xe8\xd3\xef@\\\xd1\xbe\xdal"=]%C\xde\x98\xfb\rD\x8c\xb4\x06\xe0\x82q\xbf\xc2DP85t:\xa4\xc8\x121l_\xdd\x98M{\xa5\xe1\xbb(\x87\xf8o\xbd\xbd\x93\xef1\xb8\xf6\xf0\xa3\x96\xbe\x11\xb5\x1d\rKQn\x89n\x90\xe3QN<1]\xbdq\xe6/3hd\x8d?G\x96\xcfu\xd2x\x8c\x08\xbf\xdaC\x16\xd0\x9d\x8a\xda\xa1>i\xcc\xec\'WYV\xe8\x9f\x07\xf7\xa6\xd7\xf9p\x89]\x9e\xc4I\xbc\xec#W\x90\xd7\xb8\xa4k5\xb6\xd7v\x94\x00\x89p\x9d bfU\xaa\x89\xb4\xda\x81o\x13\x82\xe3\x9b|\x80_e\x17\xd2\x8d\xa9\x92\x08\x89\x86\'2\x86\x01\xfd\xc0\xfa5\xb100\xed\x06\xb4\xa4\xcc\xf8;l\xe92\xb9\xf1fg\x95\x84\xeb\xad\x97\x98\xe2\xefU\xa9\xfd[\x96Sx\x89\x80\xad\xfa[\xf9>o\x96%\xbdI\x1d\x0b\x8a\'\xef\xab\xe3\xdc\x1f\xf3/\xa3Y\x1d\x1anQd\x90\x02\x8d\xc02\x99u\xc3!\x89P\xf5\xc1\xd2S_\x96\x99l\xb8\x03\x02\x92\xe70\xe3\xcbCppM\x92u\xbej\x9d\xfa\r\xa0\xfc\xc6\xa6z\xd8\xdbG\xea\xb1x5\xe0\x83\xef\x03\x978sf+3\xe7&\xb3Q\xce)\xc7\x94E\xa3\x06\xea#\xce\x82\x85\xb4\x0b\x9b\n\xc9@\x99s\x8c\xa4z$\x0f\x0bR\xd2\x0bI\x00\xd2\xf6\xf4\xd8s_\xf9\xc0r\xf88\xaf{Yt(\x0eg\xed\xfc\xf6\x90Dj\xa6\x04\xe8xK\xd0\xed0J!O\xf1f\x1dE\xb4\x1eCl\x86\xc6\x85UKO\x80\xd3\x96G\x85 \xf8W\xc8\xe2\x01Z.pZ\x9eA\xa5\x07f$v\x0b9,N.NW\xd6O\xd5\xc7\x8e\xb7\xa3\xfe\xc3\x97\xa3\x8ff\xd9\x0c\x13\'u!\xaa\xcc&V\xca\xbf\x1e\xef%\x1c\xe6h\x0e\x06\xccQM\xc1\x81\xb0\x18~\xd8`\xa4\xeb\xa8F\xfc^\x7f\xa2~\xe6\xb5\xee\xac\xdd\x7fP\x9c\xf9\xfe\x99[0sp\x94\xde?\xce\x9a\xfc(\xeb\x9b\xc9\xf8\x8e\xe1\xd2~\xc5{S5\x81|x\x89\xc1\x8e\xd8\x02\xf3\'-*X_\x9c/\xfeb\xaf_\xfe\x12\x85\x81\xa8P\x82\xa0\xf9(\x9b\xa1c!&G?!\x86+\xf7\x8e\xdb6\x8e\xf1a5\x8e\xbb\xa7f,\xda R\xa6.\x0c_\x91\xc8?\xfe\x96>CujM\xe5\xb7\x04C*\xf6,\x93\xff!\xac\xdf\xa40\xe9\xd6\x12\xf9\xa8i\xe4>\xe8\xdc\xcceR\x18\xf2\xbe\x8a\xe2\xc2B0\xa4<\t\x9f\x95L|\x89\x8f\x14\xf6X\x99\xce\x8eK\xc1V\xd7\x98\x83\x91\x16\xb7S-*\xb9eY>\xdc:$w\'\xd7*O\xcbO\xe9Nu^aB\xbeb\xc2T\xf5\xe3\xe80\x1f\x07\x16\xee,[\xc4\xfbR\xf3\xe6s&R\xdaO0\xe9L\x824]\xee\x99\'\xb3\xe3\x0c^\xae\xfe~{C\xf53\xfa\x90\xf9T\xeb\xb3uM{+\xfc\x1atnd-\xb8\xdc@\xe7\n\x8d\'\xc4\xb3\x85l\x90\x84\xafx\x18\xe1T\xd32l\x8a\x91\x1d\xa0\x05x\x81\x88\x06\'\xab\xe4\x01\x11\xe4u\xe2\x17)\xec\x88\xbd\xa4 \xa1\xdeJ\xc1\xd3A\x81\xdb\xc8}\xb4\x8c\x8a\r\xf0\x9c\xdb\xd1\x86\x0b\xcc\xed\xc8\xd4\xc24\xf0\xa0o2\'\x82N\xd2\x13CW\xf0\xdfak\x9c\xc7\xcbyq\xc9I\x04\x9d[\x1a>\xa1\x13>\x9f\xb9n\xc92a\xc4\xe0\xd0\xf6\x88n\xaa\x06I[\xf5\xdct\xe5\xd9U\x87\x10aP{:\xca>#Cc\xa8\x9f\xbax\x19\x95\xf1\x9d\xedd\x804\xb5z\xfd\xd6\x7f\xcd\xe1\xaf\x11\xb7rl\x17$\n\x87\xf3[P;\xf5[\x18jc\xe4\xad\x9c\xef[5\xb8\xe2\xe3\xa2\x05\xa9\xdfB\xc42\xa6x\xa5\xe8cb\xcf\xf7\xa2\xee\xd1B\xed\xd1\x02\xc6\xf4\x9c\xf72iH\xc9\xe5I\x923\x18\xf2M\x1d=\x08\x92\x02\xf8\x8e\xd1\x016Z2DH\xd1B\xc2\x87\xa9\'\xec\xda\x14\xea\xb3\x81\x8c\x1a-9\x83R\x12/\xc1eJ\x95@\xb2\x1bu`\xb4Z\xb9Z\x91\xb6\xc2\xd7\x8c\x08@\xf4\xdb[z\xe8\xd8"\x80\xbeg\x97(\x91\xcf\xdb;\xd0]-t\x01\xe1\r\xcd9\xc5\x8d\xd3C\x06\x17\x9da\xc9\xd7\xf2\x8b\xfa\x97\xdek\x86\xbe\x13\xf9-\x9b\xf7\r\x99\x06\x04|\xf0\xdb|\n\x12\xca\xc0\xa3\xc1\x8a\xd3x\x98\x9cZ\xa0\xa8\xf0\xa1y\x0fD\x85&Cs\xb7M\xac(\xb1\x19w\xcf\xc0Pk*\x14\xd1\xe8\xd7\xb3\x1b\xe5#\x7f\xe7\x8a<.\x87\xd5-\xecF\x97-\xf1\xec\xd4\x96\xcb@\x08\xf3\xea\xc3t\xc4\x11\x8a\xb1\x1d3\xc2\x0e-\xa4\x9bRE4\x0fg#,v@a\xff\x0f|#\xe3\xcf\x8d\xe7~F`Q\x16\x02y\xce,\x0e\xb3=\t\xbcU\xb0.\xfb\xc3\xe2\x0e5s\xc3HC\xa0\xa8i\xdd\x1a5Xg\x81\xf0\x8b\x04B\x10\n\xe6\xe0\xbd\xef\x0f\xfbJ\xd3\x1f\xcc6\x07\x16\'\xdd\x8c\x99\xd1\x06a\xb6\x1b\xb8"v?\x92G\x13\xc9\xe3\x07I\xed/8v!\xf4\xcc\x11Dg]u\x94\xcd\xe0\xb6\x83\x9aF\xa0 x\x92\xfa\xd4J*\x04/\xc6\xa1\xcd\xe3\xcfJ\xd2b;+\xd8cp(\x82\xf4\x80n\xca$)\xb5\x0ee\xd4k'
tbI550
I1
F1.3325570584380779
tp15
sS'py'
p16
(I3
(L3260711583L
L2861431139L
L3712254842L
L4156958760L
L334058396L
L2902822557L
L2380175885L
L1871676220L
L3239318495L
L3291889009L
L2147201287L
L1695037743L
L2900587024L
L1684835752L
L2024185631L
L4192572945L
L3368024453L
L1728640719L
L3038332818L
L586725745L
L2324894722L
L1367539298L
L305888421L
L2712942960L
L1228000081L
L374267415L
L4202858915L
L38640195L
L2976400240L
L1457756560L
L2567798877L
L2627417697L
L1990407390L
L2030545485L
L4073996450L
L512425656L
L439257509L
L207420926L
L2492555418L
L1180762286L
L4276328470L
L2094098089L
L2347929062L
L3950623101L
L3679937027L
L24250746L
L142694161L
L3671857991L
L34856658L
L1400426295L
L2778202434L
L2240752683L
L552331524L
L4199542849L
L564406897L
L2225779590L
L2978093229L
L4272997759L
L2960782149L
L3765836687L
L1717929193L
L297799153L
L3365065464L
L2742108041L
L3695389495L
L2948447343L
L2513811896L
L2105631369L
L1214344852L
L1102543081L
L988364275L
L2088820478L
L4240001588L
L1329726439L
L3070489224L
L144355499L
L1169468756L
L2208632256L
L612578207L
L147569601L
L3791747469L
L2089187911L
L3841839173L
L982885556L
L930889312L
L3197331862L
L282888081L
L654944983L
L4145215193L
L3974748304L
L3877002165L
L3325358510L
L1688470572L
L3598424697L
L2328019014L
L2187699009L
L3480103299L
L2474279090L
L2916690620L
L2023377027L
L3395043117L
L2534080290L
L104195949L
L471534348L
L637079787L
L792540873L
L1554598380L
L1418962965L
L1852304850L
L4098013687L
L2401204035L
L2117866213L
L2096081418L
L2612572667L
L3184950771L
L775607296L
L840417859L
L3292813458L
L1883591703L
L3723490617L
L421681557L
L1850767527L
L2221665598L
L3154925415L
L4291828552L
L641113980L
L375703380L
L3090118815L
L3359451430L
L674434520L
L1816927822L
L3021383616L
L3518276362L
L3200922478L
L528934370L
L3776306700L
L1809863607L
L2070505898L
L1198428914L
L1009157519L
L3815748480L
L723626996L
L3645637287L
L1589543262L
L718197647L
L2470698074L
L2426884431L
L3865147983L
L998411868L
L2972367617L
L1916730724L
L877049024L
L2133989331L
L2640750201L
L390394216L
L2205836003L
L2053008166L
L1562947259L
L3634393251L
L1791309792L
L454107705L
L1334307005L
L3681879968L
L1575480186L
L1941038549L
L1306254719L
L3853512640L
L262637245L
L3780686765L
L1500218390L
L3684794655L
L105377470L
L1170124739L
L394529147L
L1172466171L
L1153999802L
L1213786550L
L2110895884L
L3406614215L
L3369535329L
L4160282069L
L3911573916L
L2296372258L
L2616357462L
L91065393L
L2214638635L
L2781448947L
L474257961L
L2572592882L
L2256851684L
L2119863619L
L2820885944L
L3964797445L
L2031826357L
L1091195314L
L4107258955L
L299977803L
L331932840L
L2955399260L
L1688232050L
L4003844322L
L377220905L
L3824019770L
L4085171950L
L1273565756L
L700647769L
L3917601206L
L1826773808L
L3499774992L
L679351601L
L1839492181L
L285557782L
L2107981311L
L1009745105L
L3498620492L
L3003165071L
L1216141064L
L1314419353L
L3519466945L
L4091807821L
L625248651L
L4063836234L
L3711695399L
L650981924L
L2452459473L
L3501241572L
L4187778777L
L1251314552L
L1347455620L
L3077242198L
L4059337072L
L105577857L
L85666009L
L833989736L
L2811480097L
L3780012680L
L435299200L
L1426783912L
L1361600573L
L587711793L
L3920576879L
L4076516709L
L1657862668L
L3103477789L
L45270290L
L2095927509L
L3124024588L
L2006550709L
L2469224315L
L1195162341L
L3913018366L
L2285443679L
L3412797875L
L88941548L
L3818172067L
L2876075405L
L664625967L
L2413942736L
L3598024136L
L3568214549L
L3376442686L
L2244664998L
L4091292829L
L2304315018L
L2585345132L
L3805874185L
L2757893850L
L2208392646L
L773772884L
L1629367476L
L1781874524L
L3627943162L
L3233444298L
L4054004188L
L1436581364L
L62748808L
L3471098910L
L2618889682L
L950999625L
L683552145L
L2386289717L
L338935630L
L4158062336L
L1859037218L
L411503076L
L2537038363L
L3418865560L
L1926639266L
L1995026330L
L982649902L
L90031810L
L1705243231L
L2891117674L
L846852334L
L2007896365L
L3541010094L
L3689939878L
L1256397541L
L642488240L
L2996495595L
L535164169L
L3415448969L
L3977910056L
L3364425212L
L2477552070L
L2698424501L
L1509936576L
L1350515132L
L1608414082L
L1211360689L
L4139261313L
L2245638574L
L467570527L
L426322431L
L1621122432L
L3071013816L
L274085363L
L129063601L
L112530307L
L3599490301L
L342386268L
L1188201364L
L858797194L
L1151657897L
L3310613449L
L1078991583L
L2893287181L
L3571111754L
L480694984L
L419212240L
L1829996673L
L3033031592L
L688971041L
L807105981L
L1717040444L
L3431160990L
L325485019L
L1158394495L
L1267264942L
L2725261885L
L3344604719L
L1087458786L
L910831990L
L1811096360L
L2747914495L
L1021310027L
L351403537L
L259677483L
L1138348467L
L2806625458L
L1894512435L
L442813754L
L3536650189L
L685665540L
L3241761796L
L670693732L
L3375573281L
L1857908986L
L2521606881L
L3474892259L
L2820074549L
L1227492501L
L1186250754L
L3992890849L
L3744688040L
L3008445736L
L294420799L
L2061055757L
L2643716033L
L1247679871L
L3468012607L
L1643153031L
L3654702505L
L2649992169L
L3330286790L
L601141235L
L2416143240L
L3881763088L
L2387252716L
L2841582264L
L1739987443L
L3605211979L
L2833817854L
L2055500465L
L554586295L
L1743522259L
L847185119L
L2197600052L
L1228390916L
L43967725L
L55852718L
L2477298440L
L1565629885L
L1419624211L
L4188681382L
L14481550L
L2600597181L
L1378021764L
L3816627337L
L1012445919L
L1997846200L
L981993096L
L2711934161L
L4176054320L
L907282722L
L2393634697L
L3250289190L
L2179041454L
L3597209667L
L3269007430L
L2951065312L
L2800876840L
L1037791679L
L3518118079L
L336619136L
L3050318075L
L2539747288L
L437692983L
L2698018900L
L62639752L
L61975203L
L937730229L
L736929402L
L400125809L
L3447237631L
L4138380389L
L2262847803L
L2851444838L
L3237616869L
L4104409163L
L3904937833L
L2822769516L
L3620631970L
L1783277672L
L1520082509L
L3751939031L
L3879562176L
L233651669L
L1381794907L
L1680330437L
L3107073636L
L2061625700L
L2025718698L
L1602213811L
L2076570337L
L3978728333L
L573692999L
L3741656141L
L3339171953L
L333609241L
L1714064759L
L1674023717L
L959071452L
L2338519264L
L1693920059L
L1584016081L
L1199549286L
L2621858970L
L3763197202L
L1712543881L
L1111167338L
L2201118007L
L341745746L
L3094987626L
L1565337259L
L797297822L
L1327313470L
L840598872L
L1270819541L
L4150723340L
L3256445677L
L2242347446L
L975038722L
L564940672L
L2291157304L
L2095719769L
L393725533L
L245188289L
L3249869932L
L2646687794L
L2766810763L
L2747326301L
L4240130832L
L15685154L
L1062890183L
L4227315747L
L2008494608L
L634135832L
L2636115690L
L3275033663L
L3290733476L
L3403526373L
L3693357937L
L2561931104L
L3302604668L
L1763919322L
L2612250200L
L2287333949L
L217215699L
L2507230712L
L1726225653L
L2268102759L
L978604271L
L1916791367L
L1791252803L
L2880959868L
L4246168181L
L1433003920L
L2308142339L
L3790937058L
L1961803229L
L2835714574L
L3286116215L
L3916904694L
L3087771139L
L3999484597L
L20561581L
L2419655817L
L4142350139L
L1790440562L
L3269412981L
L363068554L
L1881633892L
L1590336868L
L1817700015L
L1365449726L
L1732412969L
L1186132197L
L2911008510L
L3357510900L
L3156178196L
L3692814491L
L2023884369L
L349453847L
L530394603L
L2392945057L
L715821577L
L1346104896L
L858478170L
L798109805L
L2833149936L
L2291143310L
L283300486L
L400394278L
L3639622178L
L1043410078L
L3179881659L
L729097457L
L2289422380L
L1190163753L
L3253636652L
L4102869588L
L584312205L
L1579390644L
L3635550100L
L2311462906L
L2363074580L
L947788099L
L3523899785L
L257790886L
L305434017L
L1663127557L
L16043399L
L4038784375L
L1858747554L
L830197217L
L4006826433L
L1458021483L
L2412900859L
L2158867855L
L3487174853L
L3392353177L
L2806690953L
L2919892869L
L4224761355L
L1683526329L
L3489220033L
L1643056191L
L2072038612L
L2661584249L
L563941308L
L4070760321L
L1307497827L
L2506830063L
L969798817L
L135232952L
L951521947L
L1724850777L
L1469830910L
L555264815L
L75338987L
L596361807L
L3541728787L
L581334857L
L2550320794L
L2449922754L
L2431017754L
L3978686029L
L398559132L
L2626429751L
L158411683L
L1902117754L
L620403274L
L3566843315L
L42870716L
L2209586343L
L1288172616L
L1300879248L
L2806607843L
L1960963367L
L3271180137L
L2829341862L
L3490261839L
L2968070636L
L2109815121L
L3345203875L
L3217250965L
L3278323502L
L934284406L
L428231674L
L1323436223L
L3598149357L
L4114704313L
L1663305517L
L512L
tNtp17
sS'torch'
p18
ctorch._utils
_rebuild_tensor
p19
(ctorch
ByteStorage
p20
((lp21
I0
aI0
aI0
aI0
aI0
aI0
aI0
aI0
aI1
aI1
aI0
aI0
aI1
aI0
aI0
aI0
aI112
aI1
aI0
aI0
aI0
aI0
aI0
aI0
aI51
aI221
aI165
aI189
aI0
aI0
aI0
aI0
aI253
aI104
aI182
aI190
aI0
aI0
aI0
aI0
aI244
aI131
aI149
aI55
aI0
aI0
aI0
aI0
aI251
aI34
aI123
aI53
aI0
aI0
aI0
aI0
aI166
aI48
aI219
aI213
aI0
aI0
aI0
aI0
aI88
aI238
aI28
aI83
aI0
aI0
aI0
aI0
aI128
aI19
aI174
aI50
aI0
aI0
aI0
aI0
aI232
aI18
aI132
aI119
aI0
aI0
aI0
aI0
aI85
aI74
aI199
aI173
aI0
aI0
aI0
aI0
aI135
aI114
aI140
aI224
aI0
aI0
aI0
aI0
aI152
aI0
aI72
aI100
aI0
aI0
aI0
aI0
aI144
aI194
aI84
aI30
aI0
aI0
aI0
aI0
aI28
aI41
aI90
aI135
aI0
aI0
aI0
aI0
aI108
aI177
aI57
aI49
aI0
aI0
aI0
aI0
aI74
aI45
aI53
aI71
aI0
aI0
aI0
aI0
aI178
aI250
aI195
aI64
aI0
aI0
aI0
aI0
aI23
aI113
aI47
aI28
aI0
aI0
aI0
aI0
aI214
aI4
aI55
aI215
aI0
aI0
aI0
aI0
aI18
aI165
aI193
aI127
aI0
aI0
aI0
aI0
aI26
aI60
aI109
aI43
aI0
aI0
aI0
aI0
aI179
aI36
aI64
aI190
aI0
aI0
aI0
aI0
aI223
aI218
aI20
aI130
aI0
aI0
aI0
aI0
aI6
aI204
aI41
aI248
aI0
aI0
aI0
aI0
aI130
aI209
aI34
aI122
aI0
aI0
aI0
aI0
aI183
aI7
aI183
aI159
aI0
aI0
aI0
aI0
aI130
aI225
aI15
aI192
aI0
aI0
aI0
aI0
aI58
aI96
aI84
aI219
aI0
aI0
aI0
aI0
aI82
aI152
aI186
aI122
aI0
aI0
aI0
aI0
aI152
aI48
aI73
aI106
aI0
aI0
aI0
aI0
aI194
aI68
aI142
aI132
aI0
aI0
aI0
aI0
aI32
aI197
aI128
aI184
aI0
aI0
aI0
aI0
aI142
aI172
aI189
aI38
aI0
aI0
aI0
aI0
aI18
aI255
aI133
aI141
aI0
aI0
aI0
aI0
aI139
aI87
aI178
aI87
aI0
aI0
aI0
aI0
aI148
aI186
aI68
aI115
aI0
aI0
aI0
aI0
aI4
aI97
aI101
aI227
aI0
aI0
aI0
aI0
aI24
aI29
aI34
aI47
aI0
aI0
aI0
aI0
aI84
aI187
aI38
aI140
aI0
aI0
aI0
aI0
aI45
aI187
aI70
aI209
aI0
aI0
aI0
aI0
aI209
aI16
aI245
aI192
aI0
aI0
aI0
aI0
aI59
aI161
aI170
aI115
aI0
aI0
aI0
aI0
aI168
aI139
aI45
aI79
aI0
aI0
aI0
aI0
aI39
aI97
aI103
aI217
aI0
aI0
aI0
aI0
aI54
aI116
aI52
aI103
aI0
aI0
aI0
aI0
aI70
aI138
aI98
aI209
aI0
aI0
aI0
aI0
aI17
aI140
aI159
aI221
aI0
aI0
aI0
aI0
aI228
aI102
aI32
aI251
aI0
aI0
aI0
aI0
aI124
aI86
aI234
aI84
aI0
aI0
aI0
aI0
aI192
aI25
aI55
aI89
aI0
aI0
aI0
aI0
aI3
aI164
aI112
aI51
aI0
aI0
aI0
aI0
aI140
aI164
aI94
aI165
aI0
aI0
aI0
aI0
aI234
aI119
aI0
aI245
aI0
aI0
aI0
aI0
aI206
aI178
aI55
aI33
aI0
aI0
aI0
aI0
aI14
aI66
aI108
aI191
aI0
aI0
aI0
aI0
aI254
aI246
aI176
aI126
aI0
aI0
aI0
aI0
aI243
aI29
aI52
aI180
aI0
aI0
aI0
aI0
aI230
aI176
aI118
aI205
aI0
aI0
aI0
aI0
aI120
aI239
aI208
aI160
aI0
aI0
aI0
aI0
aI18
aI215
aI126
aI70
aI0
aI0
aI0
aI0
aI32
aI184
aI5
aI232
aI0
aI0
aI0
aI0
aI37
aI92
aI222
aI108
aI0
aI0
aI0
aI0
aI78
aI138
aI235
aI209
aI0
aI0
aI0
aI0
aI197
aI83
aI135
aI245
aI0
aI0
aI0
aI0
aI3
aI227
aI164
aI203
aI0
aI0
aI0
aI0
aI21
aI18
aI20
aI219
aI0
aI0
aI0
aI0
aI50
aI207
aI64
aI170
aI0
aI0
aI0
aI0
aI252
aI202
aI12
aI152
aI0
aI0
aI0
aI0
aI42
aI220
aI40
aI149
aI0
aI0
aI0
aI0
aI214
aI103
aI183
aI98
aI0
aI0
aI0
aI0
aI73
aI140
aI34
aI48
aI0
aI0
aI0
aI0
aI2
aI30
aI125
aI121
aI0
aI0
aI0
aI0
aI245
aI234
aI76
aI182
aI0
aI0
aI0
aI0
aI226
aI163
aI147
aI32
aI0
aI0
aI0
aI0
aI124
aI185
aI152
aI26
aI0
aI0
aI0
aI0
aI106
aI179
aI148
aI214
aI0
aI0
aI0
aI0
aI155
aI99
aI92
aI48
aI0
aI0
aI0
aI0
aI59
aI92
aI7
aI182
aI0
aI0
aI0
aI0
aI100
aI229
aI186
aI38
aI0
aI0
aI0
aI0
aI122
aI148
aI158
aI106
aI0
aI0
aI0
aI0
aI66
aI178
aI155
aI235
aI0
aI0
aI0
aI0
aI114
aI4
aI127
aI61
aI0
aI0
aI0
aI0
aI138
aI238
aI50
aI122
aI0
aI0
aI0
aI0
aI84
aI87
aI142
aI26
aI0
aI0
aI0
aI0
aI189
aI107
aI117
aI146
aI0
aI0
aI0
aI0
aI124
aI164
aI229
aI95
aI0
aI0
aI0
aI0
aI66
aI163
aI187
aI150
aI0
aI0
aI0
aI0
aI46
aI103
aI19
aI118
aI0
aI0
aI0
aI0
aI152
aI22
aI21
aI140
aI0
aI0
aI0
aI0
aI125
aI178
aI252
aI152
aI0
aI0
aI0
aI0
aI229
aI204
aI107
aI234
aI0
aI0
aI0
aI0
aI168
aI198
aI25
aI58
aI0
aI0
aI0
aI0
aI4
aI192
aI82
aI33
aI0
aI0
aI0
aI0
aI195
aI107
aI87
aI119
aI0
aI0
aI0
aI0
aI158
aI126
aI168
aI250
aI0
aI0
aI0
aI0
aI38
aI112
aI87
aI144
aI0
aI0
aI0
aI0
aI132
aI62
aI152
aI188
aI0
aI0
aI0
aI0
aI64
aI23
aI204
aI78
aI0
aI0
aI0
aI0
aI227
aI45
aI186
aI94
aI0
aI0
aI0
aI0
aI189
aI180
aI25
aI100
aI0
aI0
aI0
aI0
aI223
aI250
aI68
aI66
aI0
aI0
aI0
aI0
aI211
aI178
aI228
aI244
aI0
aI0
aI0
aI0
aI254
aI233
aI54
aI57
aI0
aI0
aI0
aI0
aI144
aI210
aI17
aI59
aI0
aI0
aI0
aI0
aI204
aI125
aI13
aI112
aI0
aI0
aI0
aI0
aI23
aI72
aI25
aI77
aI0
aI0
aI0
aI0
aI84
aI40
aI93
aI36
aI0
aI0
aI0
aI0
aI131
aI38
aI2
aI124
aI0
aI0
aI0
aI0
aI244
aI94
aI183
aI146
aI0
aI0
aI0
aI0
aI169
aI12
aI63
aI204
aI0
aI0
aI0
aI0
aI97
aI141
aI21
aI59
aI0
aI0
aI0
aI0
aI201
aI224
aI233
aI165
aI0
aI0
aI0
aI0
aI136
aI104
aI67
aI138
aI0
aI0
aI0
aI0
aI40
aI15
aI223
aI237
aI0
aI0
aI0
aI0
aI42
aI21
aI190
aI248
aI0
aI0
aI0
aI0
aI33
aI190
aI250
aI188
aI0
aI0
aI0
aI0
aI91
aI252
aI8
aI227
aI0
aI0
aI0
aI0
aI101
aI184
aI7
aI205
aI0
aI0
aI0
aI0
aI7
aI180
aI18
aI192
aI0
aI0
aI0
aI0
aI112
aI193
aI222
aI163
aI0
aI0
aI0
aI0
aI177
aI195
aI243
aI194
aI0
aI0
aI0
aI0
aI86
aI104
aI215
aI210
aI0
aI0
aI0
aI0
aI238
aI78
aI66
aI243
aI0
aI0
aI0
aI0
aI35
aI194
aI190
aI81
aI0
aI0
aI0
aI0
aI38
aI40
aI86
aI247
aI0
aI0
aI0
aI0
aI193
aI137
aI172
aI170
aI0
aI0
aI0
aI0
aI169
aI202
aI92
aI94
aI0
aI0
aI0
aI0
aI117
aI44
aI212
aI103
aI0
aI0
aI0
aI0
aI65
aI53
aI204
aI66
aI0
aI0
aI0
aI0
aI133
aI135
aI2
aI171
aI0
aI0
aI0
aI0
aI232
aI133
aI108
aI158
aI0
aI0
aI0
aI0
aI219
aI190
aI163
aI93
aI0
aI0
aI0
aI0
aI163
aI228
aI226
aI125
aI0
aI0
aI0
aI0
aI171
aI33
aI230
aI104
aI0
aI0
aI0
aI0
aI182
aI142
aI154
aI11
aI0
aI0
aI0
aI0
aI174
aI42
aI92
aI211
aI0
aI0
aI0
aI0
aI34
aI123
aI208
aI107
aI0
aI0
aI0
aI0
aI184
aI163
aI61
aI150
aI0
aI0
aI0
aI0
aI128
aI131
aI227
aI22
aI0
aI0
aI0
aI0
aI68
aI22
aI138
aI66
aI0
aI0
aI0
aI0
aI22
aI107
aI241
aI247
aI0
aI0
aI0
aI0
aI106
aI251
aI210
aI171
aI0
aI0
aI0
aI0
aI71
aI163
aI20
aI133
aI0
aI0
aI0
aI0
aI192
aI125
aI42
aI227
aI0
aI0
aI0
aI0
aI138
aI107
aI214
aI46
aI0
aI0
aI0
aI0
aI1
aI91
aI215
aI99
aI0
aI0
aI0
aI0
aI115
aI21
aI106
aI198
aI0
aI0
aI0
aI0
aI21
aI90
aI53
aI185
aI0
aI0
aI0
aI0
aI124
aI222
aI175
aI220
aI0
aI0
aI0
aI0
aI240
aI7
aI185
aI240
aI0
aI0
aI0
aI0
aI100
aI153
aI89
aI136
aI0
aI0
aI0
aI0
aI176
aI123
aI112
aI192
aI0
aI0
aI0
aI0
aI37
aI10
aI4
aI123
aI0
aI0
aI0
aI0
aI29
aI145
aI6
aI190
aI0
aI0
aI0
aI0
aI120
aI7
aI183
aI65
aI0
aI0
aI0
aI0
aI72
aI122
aI21
aI109
aI0
aI0
aI0
aI0
aI82
aI33
aI145
aI54
aI0
aI0
aI0
aI0
aI10
aI195
aI154
aI150
aI0
aI0
aI0
aI0
aI100
aI181
aI223
aI102
aI0
aI0
aI0
aI0
aI104
aI23
aI228
aI214
aI0
aI0
aI0
aI0
aI209
aI127
aI147
aI170
aI0
aI0
aI0
aI0
aI246
aI217
aI13
aI142
aI0
aI0
aI0
aI0
aI158
aI97
aI96
aI103
aI0
aI0
aI0
aI0
aI2
aI212
aI29
aI84
aI0
aI0
aI0
aI0
aI15
aI204
aI217
aI201
aI0
aI0
aI0
aI0
aI123
aI217
aI43
aI21
aI0
aI0
aI0
aI0
aI88
aI71
aI195
aI208
aI0
aI0
aI0
aI0
aI212
aI156
aI24
aI139
aI0
aI0
aI0
aI0
aI202
aI109
aI153
aI114
aI0
aI0
aI0
aI0
aI236
aI66
aI57
aI174
aI0
aI0
aI0
aI0
aI95
aI65
aI176
aI10
aI0
aI0
aI0
aI0
aI59
aI32
aI247
aI181
aI0
aI0
aI0
aI0
aI241
aI125
aI137
aI254
aI0
aI0
aI0
aI0
aI12
aI151
aI128
aI99
aI0
aI0
aI0
aI0
aI7
aI167
aI233
aI68
aI0
aI0
aI0
aI0
aI45
aI228
aI158
aI245
aI0
aI0
aI0
aI0
aI113
aI48
aI103
aI185
aI0
aI0
aI0
aI0
aI6
aI99
aI134
aI134
aI0
aI0
aI0
aI0
aI189
aI168
aI58
aI33
aI0
aI0
aI0
aI0
aI114
aI68
aI181
aI60
aI0
aI0
aI0
aI0
aI8
aI158
aI57
aI12
aI0
aI0
aI0
aI0
aI94
aI62
aI182
aI114
aI0
aI0
aI0
aI0
aI139
aI145
aI111
aI31
aI0
aI0
aI0
aI0
aI17
aI90
aI151
aI114
aI0
aI0
aI0
aI0
aI10
aI128
aI75
aI25
aI0
aI0
aI0
aI0
aI237
aI219
aI200
aI14
aI0
aI0
aI0
aI0
aI21
aI199
aI129
aI38
aI0
aI0
aI0
aI0
aI185
aI34
aI210
aI169
aI0
aI0
aI0
aI0
aI71
aI10
aI200
aI50
aI0
aI0
aI0
aI0
aI166
aI246
aI218
aI123
aI0
aI0
aI0
aI0
aI20
aI103
aI17
aI172
aI0
aI0
aI0
aI0
aI159
aI158
aI158
aI62
aI0
aI0
aI0
aI0
aI238
aI53
aI163
aI255
aI0
aI0
aI0
aI0
aI19
aI78
aI91
aI37
aI0
aI0
aI0
aI0
aI192
aI123
aI158
aI65
aI0
aI0
aI0
aI0
aI209
aI100
aI222
aI44
aI0
aI0
aI0
aI0
aI41
aI213
aI57
aI208
aI0
aI0
aI0
aI0
aI120
aI167
aI234
aI169
aI0
aI0
aI0
aI0
aI133
aI10
aI245
aI157
aI0
aI0
aI0
aI0
aI138
aI228
aI203
aI77
aI0
aI0
aI0
aI0
aI178
aI254
aI18
aI6
aI0
aI0
aI0
aI0
aI109
aI169
aI56
aI216
aI0
aI0
aI0
aI0
aI37
aI112
aI113
aI76
aI0
aI0
aI0
aI0
aI4
aI59
aI89
aI54
aI0
aI0
aI0
aI0
aI200
aI68
aI14
aI78
aI0
aI0
aI0
aI0
aI151
aI6
aI21
aI36
aI0
aI0
aI0
aI0
aI112
aI160
aI250
aI91
aI0
aI0
aI0
aI0
aI116
aI67
aI198
aI190
aI0
aI0
aI0
aI0
aI46
aI193
aI215
aI21
aI0
aI0
aI0
aI0
aI36
aI232
aI24
aI9
aI0
aI0
aI0
aI0
aI161
aI205
aI232
aI148
aI0
aI0
aI0
aI0
aI143
aI190
aI215
aI57
aI0
aI0
aI0
aI0
aI157
aI31
aI49
aI7
aI0
aI0
aI0
aI0
aI239
aI85
aI162
aI166
aI0
aI0
aI0
aI0
aI217
aI139
aI59
aI183
aI0
aI0
aI0
aI0
aI141
aI118
aI29
aI96
aI0
aI0
aI0
aI0
aI119
aI240
aI219
aI35
aI0
aI0
aI0
aI0
aI127
aI201
aI88
aI1
aI0
aI0
aI0
aI0
aI39
aI48
aI122
aI37
aI0
aI0
aI0
aI0
aI137
aI22
aI15
aI90
aI0
aI0
aI0
aI0
aI28
aI72
aI150
aI247
aI0
aI0
aI0
aI0
aI25
aI90
aI173
aI230
aI0
aI0
aI0
aI0
aI218
aI222
aI120
aI238
aI0
aI0
aI0
aI0
aI76
aI60
aI240
aI63
aI0
aI0
aI0
aI0
aI206
aI103
aI252
aI79
aI0
aI0
aI0
aI0
aI145
aI181
aI60
aI52
aI0
aI0
aI0
aI0
aI139
aI249
aI133
aI79
aI0
aI0
aI0
aI0
aI88
aI85
aI5
aI11
aI0
aI0
aI0
aI0
aI117
aI230
aI169
aI64
aI0
aI0
aI0
aI0
aI125
aI100
aI58
aI148
aI0
aI0
aI0
aI0
aI254
aI140
aI117
aI115
aI0
aI0
aI0
aI0
aI254
aI62
aI187
aI14
aI0
aI0
aI0
aI0
aI202
aI80
aI113
aI109
aI0
aI0
aI0
aI0
aI190
aI156
aI123
aI57
aI0
aI0
aI0
aI0
aI78
aI134
aI183
aI229
aI0
aI0
aI0
aI0
aI250
aI40
aI64
aI159
aI0
aI0
aI0
aI0
aI9
aI201
aI169
aI221
aI0
aI0
aI0
aI0
aI190
aI119
aI15
aI75
aI0
aI0
aI0
aI0
aI101
aI204
aI176
aI39
aI0
aI0
aI0
aI0
aI169
aI216
aI165
aI169
aI0
aI0
aI0
aI0
aI104
aI85
aI148
aI101
aI0
aI0
aI0
aI0
aI15
aI243
aI202
aI180
aI0
aI0
aI0
aI0
aI67
aI186
aI172
aI5
aI0
aI0
aI0
aI0
aI235
aI99
aI188
aI202
aI0
aI0
aI0
aI0
aI232
aI247
aI246
aI183
aI0
aI0
aI0
aI0
aI15
aI98
aI142
aI58
aI0
aI0
aI0
aI0
aI80
aI21
aI220
aI153
aI0
aI0
aI0
aI0
aI236
aI36
aI119
aI209
aI0
aI0
aI0
aI0
aI172
aI201
aI215
aI251
aI0
aI0
aI0
aI0
aI156
aI163
aI75
aI190
aI0
aI0
aI0
aI0
aI5
aI157
aI174
aI202
aI0
aI0
aI0
aI0
aI236
aI181
aI61
aI239
aI0
aI0
aI0
aI0
aI66
aI13
aI39
aI198
aI0
aI0
aI0
aI0
aI208
aI5
aI203
aI239
aI0
aI0
aI0
aI0
aI85
aI236
aI191
aI161
aI0
aI0
aI0
aI0
aI80
aI173
aI103
aI96
aI0
aI0
aI0
aI0
aI187
aI109
aI21
aI67
aI0
aI0
aI0
aI0
aI206
aI18
aI104
aI38
aI0
aI0
aI0
aI0
aI187
aI124
aI85
aI213
aI0
aI0
aI0
aI0
aI65
aI204
aI60
aI249
aI0
aI0
aI0
aI0
aI124
aI243
aI16
aI11
aI0
aI0
aI0
aI0
aI137
aI220
aI216
aI127
aI0
aI0
aI0
aI0
aI19
aI247
aI157
aI71
aI0
aI0
aI0
aI0
aI236
aI195
aI7
aI75
aI0
aI0
aI0
aI0
aI97
aI49
aI19
aI111
aI0
aI0
aI0
aI0
aI87
aI167
aI156
aI205
aI0
aI0
aI0
aI0
aI242
aI194
aI128
aI118
aI0
aI0
aI0
aI0
aI133
aI134
aI92
aI169
aI0
aI0
aI0
aI0
aI85
aI179
aI131
aI125
aI0
aI0
aI0
aI0
aI37
aI219
aI64
aI133
aI0
aI0
aI0
aI0
aI124
aI41
aI138
aI214
aI0
aI0
aI0
aI0
aI121
aI52
aI105
aI36
aI0
aI0
aI0
aI0
aI27
aI253
aI235
aI203
aI0
aI0
aI0
aI0
aI57
aI184
aI213
aI16
aI0
aI0
aI0
aI0
aI189
aI17
aI200
aI86
aI0
aI0
aI0
aI0
aI37
aI100
aI8
aI163
aI0
aI0
aI0
aI0
aI119
aI165
aI47
aI137
aI0
aI0
aI0
aI0
aI237
aI222
aI223
aI255
aI0
aI0
aI0
aI0
aI175
aI21
aI72
aI180
aI0
aI0
aI0
aI0
aI160
aI199
aI213
aI77
aI0
aI0
aI0
aI0
aI37
aI185
aI67
aI102
aI0
aI0
aI0
aI0
aI170
aI205
aI62
aI85
aI0
aI0
aI0
aI0
aI62
aI76
aI129
aI53
aI0
aI0
aI0
aI0
aI69
aI3
aI255
aI218
aI0
aI0
aI0
aI0
aI255
aI82
aI149
aI190
aI0
aI0
aI0
aI0
aI28
aI52
aI227
aI107
aI0
aI0
aI0
aI0
aI18
aI214
aI194
aI111
aI0
aI0
aI0
aI0
aI192
aI186
aI135
aI26
aI0
aI0
aI0
aI0
aI235
aI73
aI203
aI129
aI0
aI0
aI0
aI0
aI148
aI34
aI172
aI161
aI0
aI0
aI0
aI0
aI95
aI13
aI21
aI163
aI0
aI0
aI0
aI0
aI249
aI223
aI61
aI63
aI0
aI0
aI0
aI0
aI255
aI255
aI213
aI37
aI0
aI0
aI0
aI0
aI156
aI27
aI219
aI34
aI0
aI0
aI0
aI0
aI153
aI40
aI60
aI219
aI0
aI0
aI0
aI0
aI156
aI26
aI115
aI89
aI0
aI0
aI0
aI0
aI143
aI66
aI169
aI250
aI0
aI0
aI0
aI0
aI87
aI174
aI94
aI47
aI0
aI0
aI0
aI0
aI190
aI137
aI171
aI64
aI0
aI0
aI0
aI0
aI241
aI10
aI120
aI195
aI0
aI0
aI0
aI0
aI49
aI233
aI119
aI135
aI0
aI0
aI0
aI0
aI233
aI255
aI60
aI172
aI0
aI0
aI0
aI0
aI194
aI233
aI51
aI15
aI0
aI0
aI0
aI0
aI28
aI5
aI75
aI150
aI0
aI0
aI0
aI0
aI4
aI253
aI13
aI68
aI0
aI0
aI0
aI0
aI100
aI108
aI72
aI95
aI0
aI0
aI0
aI0
aI117
aI187
aI116
aI68
aI0
aI0
aI0
aI0
aI30
aI198
aI236
aI55
aI0
aI0
aI0
aI0
aI60
aI64
aI236
aI62
aI0
aI0
aI0
aI0
aI73
aI207
aI141
aI220
aI0
aI0
aI0
aI0
aI2
aI129
aI3
aI164
aI0
aI0
aI0
aI0
aI166
aI5
aI134
aI56
aI0
aI0
aI0
aI0
aI156
aI62
aI148
aI31
aI0
aI0
aI0
aI0
aI12
aI226
aI183
aI50
aI0
aI0
aI0
aI0
aI62
aI216
aI116
aI200
aI0
aI0
aI0
aI0
aI255
aI228
aI210
aI213
aI0
aI0
aI0
aI0
aI218
aI210
aI130
aI80
aI0
aI0
aI0
aI0
aI12
aI237
aI188
aI165
aI0
aI0
aI0
aI0
aI48
aI164
aI252
aI225
aI0
aI0
aI0
aI0
aI198
aI12
aI195
aI203
aI0
aI0
aI0
aI0
aI181
aI117
aI70
aI90
aI0
aI0
aI0
aI0
aI158
aI82
aI207
aI29
aI0
aI0
aI0
aI0
aI137
aI236
aI158
aI228
aI0
aI0
aI0
aI0
aI245
aI10
aI70
aI207
aI0
aI0
aI0
aI0
aI57
aI6
aI226
aI97
aI0
aI0
aI0
aI0
aI138
aI255
aI21
aI247
aI0
aI0
aI0
aI0
aI48
aI136
aI173
aI118
aI0
aI0
aI0
aI0
aI221
aI118
aI133
aI105
aI0
aI0
aI0
aI0
aI33
aI219
aI145
aI193
aI0
aI0
aI0
aI0
aI33
aI22
aI40
aI42
aI0
aI0
aI0
aI0
aI21
aI147
aI186
aI67
aI0
aI0
aI0
aI0
aI172
aI196
aI243
aI173
aI0
aI0
aI0
aI0
aI121
aI188
aI209
aI82
aI0
aI0
aI0
aI0
aI161
aI229
aI77
aI48
aI0
aI0
aI0
aI0
aI53
aI40
aI254
aI84
aI0
aI0
aI0
aI0
aI90
aI77
aI36
aI5
aI0
aI0
aI0
aI0
aI32
aI20
aI44
aI66
aI0
aI0
aI0
aI0
aI211
aI123
aI43
aI164
aI0
aI0
aI0
aI0
aI68
aI192
aI31
aI251
aI0
aI0
aI0
aI0
aI189
aI129
aI24
aI120
aI0
aI0
aI0
aI0
aI195
aI127
aI96
aI60
aI0
aI0
aI0
aI0
aI111
aI156
aI43
aI226
aI0
aI0
aI0
aI0
aI112
aI129
aI29
aI50
aI0
aI0
aI0
aI0
aI167
aI121
aI52
aI195
aI0
aI0
aI0
aI0
aI37
aI89
aI171
aI240
aI0
aI0
aI0
aI0
aI122
aI4
aI185
aI35
aI0
aI0
aI0
aI0
aI213
aI192
aI130
aI179
aI0
aI0
aI0
aI0
aI31
aI151
aI123
aI28
aI0
aI0
aI0
aI0
aI99
aI13
aI102
aI168
aI0
aI0
aI0
aI0
aI158
aI138
aI80
aI168
aI0
aI0
aI0
aI0
aI62
aI132
aI244
aI205
aI0
aI0
aI0
aI0
aI183
aI14
aI68
aI126
aI0
aI0
aI0
aI0
aI30
aI140
aI129
aI223
aI0
aI0
aI0
aI0
aI161
aI162
aI49
aI57
aI0
aI0
aI0
aI0
aI35
aI144
aI96
aI139
aI0
aI0
aI0
aI0
aI246
aI244
aI164
aI199
aI0
aI0
aI0
aI0
aI66
aI169
aI18
aI162
aI0
aI0
aI0
aI0
aI243
aI3
aI175
aI77
aI0
aI0
aI0
aI0
aI47
aI173
aI163
aI184
aI0
aI0
aI0
aI0
aI50
aI203
aI181
aI207
aI0
aI0
aI0
aI0
aI41
aI55
aI228
aI117
aI0
aI0
aI0
aI0
aI25
aI115
aI251
aI70
aI0
aI0
aI0
aI0
aI121
aI65
aI135
aI97
aI0
aI0
aI0
aI0
aI71
aI99
aI125
aI240
aI0
aI0
aI0
aI0
aI119
aI233
aI3
aI245
aI0
aI0
aI0
aI0
aI79
aI79
aI204
aI7
aI0
aI0
aI0
aI0
aI96
aI46
aI151
aI219
aI0
aI0
aI0
aI0
aI50
aI86
aI174
aI141
aI0
aI0
aI0
aI0
aI33
aI136
aI204
aI137
aI0
aI0
aI0
aI0
aI231
aI27
aI41
aI15
aI0
aI0
aI0
aI0
aI238
aI181
aI170
aI130
aI0
aI0
aI0
aI0
aI153
aI189
aI37
aI187
aI0
aI0
aI0
aI0
aI72
aI221
aI144
aI38
aI0
aI0
aI0
aI0
aI2
aI80
aI144
aI178
aI0
aI0
aI0
aI0
aI134
aI59
aI142
aI49
aI0
aI0
aI0
aI0
aI178
aI112
aI71
aI94
aI0
aI0
aI0
aI0
aI25
aI174
aI235
aI43
aI0
aI0
aI0
aI0
aI159
aI114
aI0
aI179
aI0
aI0
aI0
aI0
aI29
aI162
aI167
aI149
aI0
aI0
aI0
aI0
aI138
aI127
aI177
aI136
aI0
aI0
aI0
aI0
aI116
aI108
aI29
aI86
aI0
aI0
aI0
aI0
aI40
aI231
aI109
aI229
aI0
aI0
aI0
aI0
aI95
aI71
aI168
aI193
aI0
aI0
aI0
aI0
aI40
aI82
aI78
aI105
aI0
aI0
aI0
aI0
aI108
aI47
aI172
aI34
aI0
aI0
aI0
aI0
aI160
aI24
aI204
aI207
aI0
aI0
aI0
aI0
aI181
aI123
aI200
aI139
aI0
aI0
aI0
aI0
aI52
aI234
aI189
aI174
aI0
aI0
aI0
aI0
aI17
aI75
aI112
aI224
aI0
aI0
aI0
aI0
aI1
aI254
aI105
aI110
aI0
aI0
aI0
aI0
aI203
aI163
aI74
aI97
aI0
aI0
aI0
aI0
aI157
aI129
aI36
aI213
aI0
aI0
aI0
aI0
aI253
aI140
aI56
aI97
aI0
aI0
aI0
aI0
aI153
aI198
aI76
aI139
aI0
aI0
aI0
aI0
aI69
aI133
aI114
aI238
aI0
aI0
aI0
aI0
aI56
aI88
aI181
aI26
aI0
aI0
aI0
aI0
aI207
aI150
aI186
aI90
aI0
aI0
aI0
aI0
aI241
aI247
aI237
aI206
aI0
aI0
aI0
aI0
aI2
aI231
aI216
aI164
aI0
aI0
aI0
aI0
aI188
aI174
aI181
aI246
aI0
aI0
aI0
aI0
aI164
aI122
aI242
aI107
aI0
aI0
aI0
aI0
aI152
aI96
aI85
aI8
aI0
aI0
aI0
aI0
aI254
aI140
aI125
aI119
aI0
aI0
aI0
aI0
aI254
aI171
aI155
aI120
aI0
aI0
aI0
aI0
aI41
aI172
aI129
aI15
aI0
aI0
aI0
aI0
aI141
aI207
aI52
aI190
aI0
aI0
aI0
aI0
aI65
aI59
aI84
aI123
aI0
aI0
aI0
aI0
aI177
aI246
aI214
aI70
aI0
aI0
aI0
aI0
aI16
aI146
aI209
aI87
aI0
aI0
aI0
aI0
aI86
aI184
aI199
aI53
aI0
aI0
aI0
aI0
aI44
aI207
aI98
aI134
aI0
aI0
aI0
aI0
aI38
aI248
aI106
aI157
aI0
aI0
aI0
aI0
aI84
aI213
aI38
aI86
aI0
aI0
aI0
aI0
aI253
aI6
aI252
aI214
aI0
aI0
aI0
aI0
aI74
aI9
aI76
aI202
aI0
aI0
aI0
aI0
aI58
aI233
aI61
aI187
aI0
aI0
aI0
aI0
aI193
aI251
aI212
aI116
aI0
aI0
aI0
aI0
aI85
aI83
aI32
aI146
aI0
aI0
aI0
aI0
aI245
aI220
aI157
aI5
aI0
aI0
aI0
aI0
aI38
aI127
aI19
aI197
aI0
aI0
aI0
aI0
aI168
aI222
aI9
aI29
aI0
aI0
aI0
aI0
aI230
aI113
aI81
aI66
aI0
aI0
aI0
aI0
aI164
aI44
aI105
aI46
aI0
aI0
aI0
aI0
aI59
aI229
aI230
aI59
aI0
aI0
aI0
aI0
aI209
aI91
aI195
aI54
aI0
aI0
aI0
aI0
aI164
aI13
aI244
aI10
aI0
aI0
aI0
aI0
aI128
aI237
aI191
aI236
aI0
aI0
aI0
aI0
aI171
aI251
aI59
aI92
aI0
aI0
aI0
aI0
aI69
aI32
aI104
aI146
aI0
aI0
aI0
aI0
aI198
aI121
aI56
aI162
aI0
aI0
aI0
aI0
aI114
aI191
aI29
aI139
aI0
aI0
aI0
aI0
aI119
aI250
aI225
aI93
aI0
aI0
aI0
aI0
aI223
aI89
aI243
aI75
aI0
aI0
aI0
aI0
aI49
aI45
aI255
aI84
aI0
aI0
aI0
aI0
aI79
aI46
aI109
aI156
aI0
aI0
aI0
aI0
aI144
aI34
aI119
aI145
aI0
aI0
aI0
aI0
aI255
aI35
aI44
aI128
aI0
aI0
aI0
aI0
aI47
aI215
aI224
aI167
aI0
aI0
aI0
aI0
aI10
aI18
aI64
aI196
aI0
aI0
aI0
aI0
aI119
aI144
aI98
aI218
aI0
aI0
aI0
aI0
aI53
aI47
aI210
aI244
aI0
aI0
aI0
aI0
aI162
aI49
aI52
aI237
aI0
aI0
aI0
aI0
aI14
aI85
aI219
aI39
aI0
aI0
aI0
aI0
aI124
aI148
aI101
aI43
aI0
aI0
aI0
aI0
aI222
aI112
aI199
aI198
aI0
aI0
aI0
aI0
aI5
aI45
aI57
aI136
aI0
aI0
aI0
aI0
aI9
aI114
aI106
aI178
aI0
aI0
aI0
aI0
aI62
aI154
aI159
aI230
aI0
aI0
aI0
aI0
aI9
aI206
aI81
aI151
aI0
aI0
aI0
aI0
aI242
aI95
aI0
aI32
aI0
aI0
aI0
aI0
aI107
aI252
aI118
aI84
aI0
aI0
aI0
aI0
aI46
aI31
aI212
aI253
aI0
aI0
aI0
aI0
aI222
aI238
aI135
aI30
aI0
aI0
aI0
aI0
aI102
aI209
aI180
aI226
aI0
aI0
aI0
aI0
aI168
aI89
aI46
aI63
aI0
aI0
aI0
aI0
aI156
aI209
aI50
aI190
aI0
aI0
aI0
aI0
aI59
aI30
aI69
aI228
aI0
aI0
aI0
aI0
aI138
aI145
aI242
aI255
aI0
aI0
aI0
aI0
aI185
aI133
aI161
aI238
aI0
aI0
aI0
aI0
aI50
aI133
aI181
aI176
aI0
aI0
aI0
aI0
aI39
aI77
aI137
aI90
aI0
aI0
aI0
aI0
aI178
aI5
aI208
aI163
aI0
aI0
aI0
aI0
aI179
aI2
aI40
aI3
aI0
aI0
aI0
aI0
aI216
aI236
aI57
aI213
aI0
aI0
aI0
aI0
aI120
aI10
aI185
aI111
aI0
aI0
aI0
aI0
aI194
aI17
aI4
aI116
aI0
aI0
aI0
aI0
aI68
aI150
aI110
aI27
aI0
aI0
aI0
aI0
aI16
aI123
aI166
aI172
aI0
aI0
aI0
aI0
aI68
aI73
aI156
aI13
aI0
aI0
aI0
aI0
aI216
aI247
aI178
aI109
aI0
aI0
aI0
aI0
aI136
aI170
aI17
aI201
aI0
aI0
aI0
aI0
aI160
aI91
aI171
aI177
aI0
aI0
aI0
aI0
aI224
aI177
aI158
aI108
aI0
aI0
aI0
aI0
aI142
aI126
aI55
aI95
aI0
aI0
aI0
aI0
aI176
aI251
aI248
aI190
aI0
aI0
aI0
aI0
aI25
aI9
aI110
aI200
aI0
aI0
aI0
aI0
aI222
aI113
aI116
aI48
aI0
aI0
aI0
aI0
aI51
aI146
aI41
aI21
aI0
aI0
aI0
aI0
aI63
aI182
aI34
aI83
aI0
aI0
aI0
aI0
aI70
aI143
aI117
aI82
aI0
aI0
aI0
aI0
aI27
aI193
aI142
aI108
aI0
aI0
aI0
aI0
aI31
aI147
aI130
aI14
aI0
aI0
aI0
aI0
aI13
aI168
aI240
aI13
aI0
aI0
aI0
aI0
aI71
aI156
aI8
aI58
aI0
aI0
aI0
aI0
aI232
aI194
aI175
aI19
aI0
aI0
aI0
aI0
aI211
aI215
aI116
aI252
aI0
aI0
aI0
aI0
aI68
aI3
aI208
aI107
aI0
aI0
aI0
aI0
aI187
aI149
aI135
aI77
aI0
aI0
aI0
aI0
aI214
aI130
aI18
aI43
aI0
aI0
aI0
aI0
aI154
aI125
aI218
aI175
aI0
aI0
aI0
aI0
aI248
aI49
aI169
aI62
aI0
aI0
aI0
aI0
aI38
aI234
aI7
aI58
aI0
aI0
aI0
aI0
aI125
aI66
aI108
aI63
aI0
aI0
aI0
aI0
aI78
aI120
aI132
aI2
aI0
aI0
aI0
aI0
aI127
aI230
aI224
aI156
aI0
aI0
aI0
aI0
aI226
aI24
aI172
aI233
aI0
aI0
aI0
aI0
aI194
aI106
aI193
aI140
aI0
aI0
aI0
aI0
aI240
aI208
aI63
aI192
aI0
aI0
aI0
aI0
aI217
aI112
aI180
aI102
aI0
aI0
aI0
aI0
aI101
aI59
aI215
aI145
aI0
aI0
aI0
aI0
aI20
aI103
aI75
aI20
aI0
aI0
aI0
aI0
aI136
aI181
aI247
aI230
aI0
aI0
aI0
aI0
aI228
aI63
aI43
aI19
aI0
aI0
aI0
aI0
aI159
aI148
aI69
aI24
aI0
aI0
aI0
aI0
aI157
aI76
aI236
aI149
aI0
aI0
aI0
aI0
aI152
aI17
aI65
aI171
aI0
aI0
aI0
aI0
aI61
aI145
aI46
aI67
aI0
aI0
aI0
aI0
aI193
aI131
aI90
aI23
aI0
aI0
aI0
aI0
aI145
aI6
aI8
aI246
aI0
aI0
aI0
aI0
aI71
aI152
aI126
aI197
aI0
aI0
aI0
aI0
aI133
aI11
aI111
aI249
aI0
aI0
aI0
aI0
aI141
aI142
aI145
aI136
aI0
aI0
aI0
aI0
aI24
aI107
aI163
aI50
aI0
aI0
aI0
aI0
aI244
aI208
aI17
aI1
aI0
aI0
aI0
aI0
aI139
aI111
aI19
aI155
aI0
aI0
aI0
aI0
aI126
aI113
aI60
aI60
aI0
aI0
aI0
aI0
aI230
aI152
aI127
aI150
aI0
aI0
aI0
aI0
aI52
aI231
aI151
aI217
aI0
aI0
aI0
aI0
aI14
aI171
aI246
aI69
aI0
aI0
aI0
aI0
aI133
aI122
aI172
aI36
aI0
aI0
aI0
aI0
aI249
aI171
aI39
aI11
aI0
aI0
aI0
aI0
aI50
aI184
aI9
aI112
aI0
aI0
aI0
aI0
aI106
aI122
aI201
aI169
aI0
aI0
aI0
aI0
aI178
aI108
aI53
aI131
aI0
aI0
aI0
aI0
aI148
aI154
aI0
aI73
aI0
aI0
aI0
aI0
aI111
aI184
aI90
aI7
aI0
aI0
aI0
aI0
aI106
aI89
aI14
aI21
aI0
aI0
aI0
aI0
aI245
aI33
aI46
aI231
aI0
aI0
aI0
aI0
aI89
aI255
aI159
aI63
aI0
aI0
aI0
aI0
aI100
aI72
aI190
aI64
aI0
aI0
aI0
aI0
aI145
aI212
aI71
aI228
aI0
aI0
aI0
aI0
aI12
aI177
aI32
aI171
aI0
aI0
aI0
aI0
aI169
aI144
aI75
aI10
aI0
aI0
aI0
aI0
aI69
aI178
aI21
aI220
aI0
aI0
aI0
aI0
aI92
aI166
aI241
aI47
aI0
aI0
aI0
aI0
aI39
aI75
aI32
aI44
aI0
aI0
aI0
aI0
aI171
aI221
aI169
aI150
aI0
aI0
aI0
aI0
aI44
aI247
aI188
aI100
aI0
aI0
aI0
aI0
aI225
aI121
aI107
aI201
aI0
aI0
aI0
aI0
aI98
aI179
aI50
aI54
aI0
aI0
aI0
aI0
aI62
aI41
aI114
aI15
aI0
aI0
aI0
aI0
aI220
aI8
aI25
aI104
aI0
aI0
aI0
aI0
aI6
aI87
aI125
aI213
aI0
aI0
aI0
aI0
aI54
aI244
aI171
aI183
aI0
aI0
aI0
aI0
aI126
aI210
aI137
aI35
aI0
aI0
aI0
aI0
aI18
aI115
aI20
aI255
aI0
aI0
aI0
aI0
aI66
aI203
aI60
aI58
aI0
aI0
aI0
aI0
aI71
aI90
aI55
aI229
aI0
aI0
aI0
aI0
aI45
aI226
aI203
aI107
aI0
aI0
aI0
aI0
aI3
aI249
aI93
aI93
aI0
aI0
aI0
aI0
aI215
aI47
aI26
aI42
aI0
aI0
aI0
aI0
aI214
aI240
aI206
aI251
aI0
aI0
aI0
aI0
aI65
aI184
aI62
aI216
aI0
aI0
aI0
aI0
aI228
aI213
aI87
aI91
aI0
aI0
aI0
aI0
aI45
aI93
aI66
aI237
aI0
aI0
aI0
aI0
aI196
aI205
aI185
aI202
aI0
aI0
aI0
aI0
aI158
aI205
aI37
aI121
aI0
aI0
aI0
aI0
aI237
aI231
aI103
aI232
aI0
aI0
aI0
aI0
aI118
aI228
aI164
aI12
aI0
aI0
aI0
aI0
aI216
aI96
aI181
aI196
aI0
aI0
aI0
aI0
aI182
aI147
aI73
aI231
aI0
aI0
aI0
aI0
aI206
aI240
aI42
aI89
aI0
aI0
aI0
aI0
aI23
aI241
aI118
aI57
aI0
aI0
aI0
aI0
aI252
aI57
aI133
aI165
aI0
aI0
aI0
aI0
aI231
aI235
aI70
aI216
aI0
aI0
aI0
aI0
aI240
aI166
aI196
aI106
aI0
aI0
aI0
aI0
aI110
aI108
aI201
aI232
aI0
aI0
aI0
aI0
aI245
aI127
aI26
aI177
aI0
aI0
aI0
aI0
aI86
aI196
aI16
aI172
aI0
aI0
aI0
aI0
aI193
aI68
aI49
aI184
aI0
aI0
aI0
aI0
aI181
aI103
aI157
aI223
aI0
aI0
aI0
aI0
aI212
aI250
aI154
aI139
aI0
aI0
aI0
aI0
aI107
aI99
aI185
aI169
aI0
aI0
aI0
aI0
aI110
aI120
aI188
aI202
aI0
aI0
aI0
aI0
aI174
aI228
aI168
aI62
aI0
aI0
aI0
aI0
aI199
aI127
aI209
aI184
aI0
aI0
aI0
aI0
aI97
aI100
aI5
aI186
aI0
aI0
aI0
aI0
aI145
aI4
aI182
aI254
aI0
aI0
aI0
aI0
aI48
aI154
aI230
aI25
aI0
aI0
aI0
aI0
aI65
aI179
aI131
aI9
aI0
aI0
aI0
aI0
aI195
aI64
aI12
aI104
aI0
aI0
aI0
aI0
aI46
aI66
aI50
aI198
aI0
aI0
aI0
aI0
aI242
aI195
aI194
aI178
aI0
aI0
aI0
aI0
aI69
aI92
aI121
aI101
aI0
aI0
aI0
aI0
aI135
aI25
aI104
aI30
aI0
aI0
aI0
aI0
aI218
aI88
aI127
aI209
aI0
aI0
aI0
aI0
aI19
aI34
aI110
aI57
aI0
aI0
aI0
aI0
aI63
aI36
aI180
aI110
aI0
aI0
aI0
aI0
aI213
aI221
aI58
aI143
aI0
aI0
aI0
aI0
aI93
aI238
aI242
aI204
aI0
aI0
aI0
aI0
aI17
aI47
aI194
aI70
aI0
aI0
aI0
aI0
aI110
aI232
aI85
aI104
aI0
aI0
aI0
aI0
aI228
aI20
aI14
aI60
aI0
aI0
aI0
aI0
aI68
aI14
aI46
aI241
aI0
aI0
aI0
aI0
aI136
aI175
aI67
aI129
aI0
aI0
aI0
aI0
aI116
aI105
aI60
aI234
aI0
aI0
aI0
aI0
aI218
aI131
aI100
aI135
aI0
aI0
aI0
aI0
aI27
aI13
aI72
aI250
aI0
aI0
aI0
aI0
aI228
aI25
aI205
aI229
aI0
aI0
aI0
aI0
aI164
aI81
aI237
aI230
aI0
aI0
aI0
aI0
aI241
aI134
aI42
aI247
aI0
aI0
aI0
aI0
aI74
aI189
aI92
aI163
aI0
aI0
aI0
aI0
aI34
aI143
aI175
aI152
aI0
aI0
aI0
aI0
aI61
aI12
aI48
aI181
aI0
aI0
aI0
aI0
aI134
aI211
aI61
aI30
aI0
aI0
aI0
aI0
aI33
aI117
aI85
aI58
aI0
aI0
aI0
aI0
aI120
aI141
aI153
aI116
aI0
aI0
aI0
aI0
aI5
aI183
aI175
aI179
aI0
aI0
aI0
aI0
aI93
aI66
aI24
aI21
aI0
aI0
aI0
aI0
aI55
aI151
aI234
aI138
aI0
aI0
aI0
aI0
aI179
aI180
aI208
aI180
aI0
aI0
aI0
aI0
aI140
aI243
aI2
aI56
aI0
aI0
aI0
aI0
aI218
aI185
aI172
aI210
aI0
aI0
aI0
aI0
aI108
aI85
aI20
aI229
aI0
aI0
aI0
aI0
aI165
aI217
aI97
aI112
aI0
aI0
aI0
aI0
aI184
aI90
aI216
aI112
aI0
aI0
aI0
aI0
aI212
aI60
aI178
aI56
aI0
aI0
aI0
aI0
aI5
aI29
aI7
aI96
aI0
aI0
aI0
aI0
aI153
aI187
aI186
aI216
aI0
aI0
aI0
aI0
aI73
aI63
aI121
aI139
aI0
aI0
aI0
aI0
aI110
aI127
aI94
aI253
aI0
aI0
aI0
aI0
aI15
aI5
aI161
aI226
aI0
aI0
aI0
aI0
aI187
aI83
aI183
aI186
aI0
aI0
aI0
aI0
aI208
aI215
aI151
aI11
aI0
aI0
aI0
aI0
aI183
aI169
aI55
aI73
aI0
aI0
aI0
aI0
aI0
aI0
aI96
aI166
aI19
aI48
aI234
aI63
aI0
aI0
aI64
aI68
aI5
aI179
aI212
aI63
aI7
aI172
aI149
aI198
aI153
aI73
aI236
aI63
aI0
aI0
aI0
aI0
aI0
aI0
aI0
aI0
atRp22
I0
(L5048L
t(L1L
ttRp23
sbsS'train_steps'
p24
I100000
sS'max_grad_norm'
p25
F176.63780946537969
s.