(dp1
S'random_state'
p2
ccopy_reg
_reconstructor
p3
(ctextmorph.edit_model.training_run
RandomState
p4
c__builtin__
object
p5
NtRp6
(dp7
S'np'
p8
(S'MT19937'
p9
cnumpy.core.multiarray
_reconstruct
p10
(cnumpy
ndarray
p11
(I0
tS'b'
tRp12
(I1
(I624
tcnumpy
dtype
p13
(S'u4'
I0
I1
tRp14
(I3
S'<'
NNNI-1
I-1
I0
tbI00
S',Yw\x8bG\xed9\x96\xdd\xa2cW;C\xfaZ\x8e;\xaan\xf7\x89\xdc\x9f{\xf4\x01\xc7\xb5\xd6\x15\x91\xf6M\x80\x96\xa0\x84\xef\xeb\xcb:\xb7H\x1dh\x87b\xe6\x0f\xca\x95\xec_\xf5e\xae\x81];_U\xb9\xf63\x0c\xce\xb1oc3\x90\x02>\x19\xa2\x06\x9c\xb8\xb8\x9d\x8ec\x88\xb8C!\xaf\x8er\x04\'\x94>\xb6\x80u\xaa}\xcd\xc6=iT\xbb\x82\x8f\xb8\x95#\x04\x84M\x10\x92\x0cY\xf9\xd7\x162^\xb9\xa1\x04Yw4,\x86LX$\xc5J\xb6\x15xES;\x02FG\x89\xe0\x07\x98\x14\x0c\xc4x\\\xda_\xb2\xce\xa88f\x1e\xb5\xe23\xef\xbaK\x12\x81\x12\xad\x8bA\x06\xae\x96\xb2\xea\xfdV\xe4!_\xdb?P\x96\x1d\xefq\xe4\x91\x87b*\xf1\xcc\xdcO\xde;D4\xda\xcd\xc6\x0bv\xc0\xbb\xf4+\x80.\xa9\xa8\xc1\xda\xc9\xafD\xc3\xef"\xfb\x16\x95\xe5\xf5\xfa\xd4t\xd6\x8e\xf5\xf5\x9b\x04)\xd2\x1ei\x14s\xad\x18m\xc9\x02\xb0\xe4\xb3\x80\x8fb&\x89y\x07X\x12\xd3\x1e\x9f#hv\xc9EsXx\xba\xed\xb2\xa9\x92bbLkc\x1ec{_\x1b\xc7\x97\xf4\x16\x83[\xb3\xeaV\xd8\xb9\xaf\x8d#F\x7f\n(\x9d\xf2\xc1\xe8\xbd\xee\x87\x1ez\x11\x10\xca5Y\xb9\x13:/\xa3\x00\xe2\x82\xfa\x05\x0f\xec\xb4{\xfai\xb3\xb3u\x96\x19\xe3kl\xec)\xe5\xb5\xb0\x1a~\xf9\xc3 \x95\x10jv\xef\x90F\xe3\xa2\xdd\x9e\xbc\xc3\x96\xb6P\xe1X\xf2N\xcc\xa1(\xfa\xc2Y\xe1\x92\xe4\x93!\xe4\xce!1\x8e\t{8G\x87\xf4Tz.\x1e#\xe3&\x8a,\xd7e\xe6w\xf0\x07\x17\xa8\xad\x12/\xa3bk45\x7fqJ\x8f"\x1aT\x94\x8a\xac\x18\x8d\xa7\x8a#\x86o\xa8K@\xd1\xc9\x99\x97v<J\xbdP\x92\xe0q\x16\x96\xcc\xbb\x8f\xbc\x81\xf4c\xb7\xf2z\xf1z\xf0\x17\x0ccu\xfae1\x04\xec\x0b8\xd8\xb1\x96D\xe3\x02\xef\xae\x1bi\xad\xe1\xc6\xb7\xf3\x9a\tQf\xd9F\n\xf3\x1e\x8d\x87f\xec\xfa;\xc7\x03z=i\tf\xe4\xa1\xba\xcf\x9ezH\x01\xf0\xcaS&>\xcd\xf1\xda\x9f\x87\xe9?\xd4\xd1\x9e\x13\xdc\xf2G\xc11\xbf\x92\xef\xd7\x13N\x06\x9bL\xc7h\xfd\x9ae\xe0\x02\x1b\xc0\x8b\xbf\xcaC\x9c[\xfc\x83g\xad\xed\xb5S\xcaT\xcb\xfc\xf9\x9bZ\x81\xd0\x0cQ\x02}}\xdbMq\xcd\t:\xb6J\xed\x86\x82\xb4\x85\xf4U\x98\xafC\xd2\xa4q\xa5E\xf4f\x10\x03\xbb\xc8\xc2\xdc\xf3\xc1)\x8b\xaa+X\xa2\x88\x8f\xf6\x12 5/\xe4\xb7\xfb\x8f\x0fGF\xd8\xa6\xc5\xbaE\xae\xfd\xd6\xee\x9bR\x9d\x08\x05\x8f\x85W\xf9\x86QO\xba\x91?^\x85\xb7\xddxp\xe0o\x1e\x9d\xf9M\xe5\xfc\x85\xc9\xf3\x0b\xc1\r\xfb:\xdfn\xff\xea\xae\'\xf4e\x0b\x97\xd8\x1d\x11\x86\xbf\xce~\x0f\x81K?19\xcc1\xee\xdf\xaa\xd6\x18\x96V\xf5,\xbb\x97\t6\xa9\xc7\x07\xb6\xc1{`$-\xa2\xb8\x0c\xbe\x03[D!X\xe8;\x97[H\x80k\xa7\x08\xa8\xcb\xa1\x7f\xdb*<\xf3\x08V\x1b\x8e#\xed\xdc7\xf2\xe1z\xcd\xae?ML\xcd8s\xee\x8e\xda/1\x85\xb3|\xde\xbe\x84\xf9\xa2t\'!\xa4\x9eq8\xac[\x05\xa5\xa3F\xdd\xb9\xeb7/\r\xf9\xea\xdc0\x10\xb6(\x99\x92\x91\xcd10\xaa\xe0\xa0\xb7\xb1\xbe\xa2\x19\x0f\x955cw\xee\x9b\xfd\x01\xe2[\x10\x83\xf7\xedF\x00\xc6\x19\x04\xec\xb5H1\x1e\xc0\tE/\xb4\xb7\x08B\x9e\x18f\xeb\x8f\x88O%c@\xecZv\x88\x9ck\x85\x81iY\x14\xb1\xbb\xa8l\xeb\xbd\x8b\x0e\x8e\xe1\xf4\xae\x0bI\x80\xba\xe4~\xe6{\x1bcP\xdb\xa8[\xa19\x19C@\x8b\xdb\xc9eE\xb0\xce\xa34|\x8cA\xd4%\x9d\x16\xfex}\x85\xb5\xd0\xf0\xb5\xa1\x95y\xe3\x13]6\xbb&\xd3\xc0\xbe\xd2\xdf\xd0\xf3?\xb6\xf2\x0b\x8f\xd6\xacQ}\xfe#\xb0\x00\xa7\xd8)\x12\xc4\xc7\xafq.#\'CS>\x05\xc0\x1f\x03\x88O\x10\xbc\xfc\xcd\xb2#N\xab\xf1GU4#\x94+\xd1\x7f\xbd\'\x99\xa7\x0c\x18\x06\x1f\x1c\xaf~\xc5|~1\xe2\x92\xea\xf2\x8c\xfd\xd1\xcc\xa6]\x81\xee\xe7:\xd1\x00]a\x9d\xfc\'\x03\xa7\xb3\xa4\xe0\xd5#\xb1\xf1\xaa\xb2j\xda\xf1\xaeCx7\xb4\x9c\x92^t\xc3\xd8\xb9\xf4\xa4\xab\x94\xc4 Cq\x0ea\xa1\xe9X\xa9T1\xf9&\xfd i0\xd2\xf0\xbbfR\xd19\x0bi\xd62\xe1|\xb1\xfa\x9eja\xf3\xe59\xde\xd7#\x9a\x19&7m\x9f\x11\xad\xb9Y\xb0.\x1d\x92\x05X\x7f,p"\x07\xc3\x06\xa8\xfe\xfc\x13\x94\x99ufEQ\xd5\xa9E\x90\x9a\xa2$\x9f\xe4!1\xd2\xce\x08\x9a\xcd\x1e\xb8\xb9\xad\n|\xff*\n\x8d\x15uj\xc3\xb6\xb8d\xcb\x93\xfa\xdb\x98\xdb\xc4\x8cS;\xdc0y\xec\xab\xcd\x0b\xf7\x19\x14\x96\xad]-\x85\xfb\x8bf\x90\xc4\xc7\xd9t\xf5e\xb0)\xaa\xa6\xbe\xa0KN\xb0OkM\xc3\x97\x1bg\xbc\xce\xf1\xf4folT\x84\xbb\x0f\xde\xe8\xc2\x078\x85Ut\xd5\x8d\x89\x93>\xbe\xc2=\xfa\xba\xd77\x06\x99H\xb3\xeb\x0e\xda\x96\xf6G\x06\x08\xcf\xbc\xf9\xda3\xebp\x00\xb6\x99\xedOM\xb4\x0b\xfd\n\xff)\xb5\x16\x03F\x14\xb1\x89\xb085\xf6\xd2\xdc\xc0E\xf2\xd5\xbb\xf7\x91\xb7e\x1b\x18tZ\xc7Q\xd4\x02dr\x19_\x94\xef$\x0bH\xa5v\x14M\xe7\xbc\xd3\xcb\x180\xb8\xae~w\x10\x80\xe1Q\x84\xb5\x15\x08;\x9e\xd6,K4\x1e\xf4\x0f\x88Z\x81\xaa\x98?E\x92\x0c\x04\xacl\xd0\xc0\xbdGs\x00\xce},\xe5\'%a)\x19V\xbc\xfb\x98\xc7\xdd%\x84VO\x1e\r\xfbI\x08\x84\x1fsq\x15:\xc6s\x93\x0f#\x9bo\xcc\x8e\xf3\x9a\xaa\xc8x#\x12\x91\x88\xe2\x92f\xe9\xfb\x95\x9e@\xa6s\xb5\t Z\xc3=\x84\xfc\xb5.\x1b\x86\x85\x97_\x89\x91\xb1O\xf4y)\x87\x02\xdc\xbbk\xa0\x95(d\x05\x0b\xac\xc8\x08\xd1\xbbw\x89\x8a\xb96#%\xd7\xa5\xec\x11\x0b\x06`a\xc6-UMJ\x17\xfb\xc3l\xb9"z%\xfab&)D\x08\x05\x1b/5\xa3\xeeta\xcd\x9eT\xf4\x1et\xce\xec5\xf3~\xa6\x17\xd6\xe8?\xc3Un\x8c\x19\x89\xc8:\xd3\x9bAw\xbcF\x92\xae\x1b\x1b\t>g\xba\x0b\xa1\xc2\xc13<\n\xd52\xab\xc8\xf01\xe6\x95\xc1\xe7\xfec\xc5\xd6xY}\xbc\xee\xf9\xc6\x9eZ\xf0\xcamS\x93\x8a\xd9\xca\x9fB\x93\xcd\x18(\x8e\xbc\\.\x0f_\xabb:EF^/\x8aS\x8dK\xf6\xaa\xfeRj\xec\xac<\xea\xe6P\x08\xcaQ@\xcc"\xdf(7\x7f\x1b\x16\x0bo\xa1\xdd\xc2q\xe5*O}\xbc\x89y.\x86\xd6\x1e\xb2\x92\xc4\x18\x86\xcc\x92!\t\xe1A-\x94\x016\xef\xff\xafK\x8eN\x0f\x00\xb2\x009\x9d+\xc4\xe63\x0b\xfd\xfd\x12\x1b\'\x94\x86\xb2\x8a-\xa4\xfe\x9aR\xf9U\x01\x83\xab9k|O\xca\xe1\xf1\x07\x97\xf8\xe0/\xf1\xfe\xc5\xd3~d\xd3N\x1a\xcd\xd2\xd7\x88\x99\x07\x91\xcf+\x11E\xc8\xe9\xd2\xf8\xa3\xa9\xbc\x94p\xff\xea\x06\x80\xbeo{s\xba\x8b*=\xab\x06\xc6\xfc\x11\x9b*9\x0e\xbb\xdaH\x17\xfa\xafW\xae\x8a\xc7\xca-\x8a\xc1N\xc1\xdav\x18\xd4C\x85\xff\x04\xf3\x1c\xd4L\xa0v \xe0n\x1av\x15\xf0fK\xb80\xd7\x8a/\x9f#\x96W\xef\'\xcd\x91Hp\x1c{\xef\xfe\x83.\xf3\xe7\xcc\xf1\x8e\x0b\xe4PT\xfbt\xa2(\x9fE \xfe\x16@\x03\x83s\x1c\xc2\xd5\xcc\xc0J\xb7s4\x06\x05B\xd3\xf8\xb9N\x06p\r\x04\xd1\xe7\xb7^\xbeb\xe4\xc3\xe3;\xb8\xf1\xd2E\xec\xa6e7\xf5\xf0\xfe\xdf\'O\xd0\x13\x8aO\xf5[\xc6O\xba\x11o\xc2=eE4\x14&\xbb\x12b\x8c\xcf\x1cp\x90\xfd\x80\xf6\x0f\xca\xe4\xe9\x9a(\x04\xc6\x0e\xbf3\xd3\xb8\xdc\xb5\xe4\x9f\x1a$\x9b\t\x17\x81\xdfe\xd9\x88\xad\xa5\xd9\'s\xce\x05\xd7\x92x\xe7\xe1\xecx\xe9h\x05\xff\xe2\x9a@%Kt\xaf\xba\xaav\xa9\xf2nAi\xaf\x85]\x11\xb2\xf7<\x97\x07"\x01\xd9i+_\xcb5\xd1Q\x99\x04Q[y\xb0\x0c\xff\xd5\xff\xca\x85\x10\xd6\x98931\xd6*\xe7\x19\xe3\x88-8\n9\xe3\xad\x18\xeb\x0f\t/H\xa7M4\x8bTq\x16\xaas\x87\x8e\x12:h\xe9 \x11zy\x01=\x80\n\x19\xa1\xc2\x9f\x01m,\x03\xda.A\xd5\x94\xaaw_1\x8eB.\xbe)\xad\xcc\x15\xd3R\xe1\xc3\xfb1\xb3\xe87\xa6\xa8\xa3\x1a\x07\x1eO\xea\xe5\xa7)\xdb\xddT\x9fa\x0c\xd8\xc8&\x18\xa8\x84\xee\xa8Fc\rc\x1b\xba\x9f_r\x01g\xff8J\x9c\x9b\x9a\x03\x9f[\x9b\xe5I\xc4\xa7\xed8*`\xa5\xa4&\x95Q\xd8\x1aVI\xa6`h\xf2+n\x95R\xab\x9e\xcd\xf9\xdf\xc0Au\xd3\xb2\xe5\x1e\xdc\x84Gl\x80\x94\xb11\x03\xaf\x06\xe1\xd1\xa1To\xa3\x1c\xbc\x05\xf7\xc2\xb9\x9d\x08\xf9\xa6\rb-<\xf6M\xc6\xce\xf4)g\x90\x1f\xf9\xbdC\xd9g;\x96\x0fv\x0b\xd1\x83\x9c&\xa47\xa1\xe9\xd5<\xbe\xd0\xea\x95.\x98\xf0y\xef\xc2v\xaf\xba\x9f\tf/\xfb\x90\n\xff\xb7i\xe6\x82\xbf\x89\xbd\x87\x8f\xe1HN\xb8#\xf2m2tXR\xf4Z>\n\xda:7t\xe0\xc4\xabfol;\xa8."\x98\xddN\xff\x15G.q\xee\xb7f\xb3\xdd\xc6\xc6g\xa4@\xf6\x05I\x85\x8b\x89\x10\xd7{\xa8_\xcee\xeazL\xd6\x93\xfdh\xd8\xa2\xeb\x90\xe5"\x11\xab\x16 $F5Q\xda:`c\x17\x84\x04\xa2Ie\x17\xed\xb2\xdf\x03\\l\xeb\xb8-\xba\x18k\xb1\x11\x87LO\xdf\x0443\x05\xc8\xfcuo\xe9\xca\x11c\t\x1eO\xf6\x847\xda\xbf\xd6\xfc\xfe\xff\x8f\xe2@\xe2\xabE\xe4+\xc0\xc1\x0f)p\xc1\x97\xd2q\xb3\xda\xbd\xd3\xbb&\x93\xb9\xdc\x8fp\xd0\x9fe\x1e\xd09\xb9\t\xa0m\x8c\x1c\x87\xb0\xcaB\x10\r@M\x8e\xe4Tua\xd8\x06\xf1\xe0\x8c\xbe\x1b\xae\xf4\xbbf\x1f\x1a\x9f}\x8d\xcc\x8b\x863*\x0b\x19\xbb\xd4\xe6w=\x11-OxxU}\xdb'
tbI458
I1
F-0.53259316992589878
tp15
sS'py'
p16
(I3
(L2657926634L
L2380225844L
L1203480267L
L1054875510L
L3036836121L
L2118330632L
L2402175406L
L2409017362L
L1975015918L
L659427962L
L711795942L
L3222841675L
L2968477330L
L180244912L
L51087103L
L3230416290L
L993981191L
L245155145L
L2107950236L
L2452159961L
L1926747398L
L818253529L
L325177904L
L4263641044L
L2781577057L
L2409976436L
L3489075855L
L3586951751L
L2648400045L
L325984714L
L2125509513L
L3148580490L
L1362048434L
L3517628216L
L3875894320L
L1137803695L
L1818547863L
L1355951616L
L3163720576L
L3628902347L
L3935125086L
L1470481064L
L2291376804L
L1301360570L
L978906585L
L3858110717L
L3944311503L
L986455432L
L1569866953L
L821943526L
L80347783L
L2540850419L
L3083678182L
L2951751824L
L1637010150L
L4175689813L
L1832004224L
L2781045318L
L3076102089L
L2907036109L
L229561021L
L3288644718L
L2929948562L
L3037869102L
L1306790879L
L1588886670L
L1605485297L
L2038272481L
L2522267701L
L3412139032L
L207284775L
L1977847759L
L164540960L
L3650655145L
L1491233084L
L415743912L
L545180000L
L1138319400L
L3783739494L
L3212823108L
L3923168061L
L1791184017L
L3230372456L
L3209966011L
L3163122582L
L769503239L
L2321757078L
L2648416628L
L2374194283L
L2637475605L
L1188453839L
L4014861564L
L1895854556L
L2168847239L
L317182362L
L580620143L
L3507402553L
L2452957730L
L2355548484L
L664103185L
L3285224876L
L3605017018L
L2608646270L
L3977258079L
L161917916L
L335606809L
L3246296722L
L1576513450L
L144578904L
L596666635L
L3011468861L
L3085213702L
L1965159360L
L3003986939L
L4263049230L
L1138587273L
L3411350719L
L1495383255L
L1503396086L
L3567264440L
L1041860613L
L4107454884L
L2914610974L
L3174516177L
L1186509620L
L2064979918L
L3688206836L
L139031100L
L91921682L
L1365543182L
L1555669765L
L3310888827L
L2541393219L
L4091283429L
L3968929693L
L2488966997L
L694192834L
L1009411218L
L163218361L
L454904777L
L95108026L
L2256922582L
L1087205570L
L615626472L
L2167536803L
L3250178814L
L4259677662L
L2234613004L
L3215770049L
L3298187785L
L827752081L
L786721562L
L3511391946L
L2320299672L
L1815696378L
L1610403870L
L3921637686L
L1844092698L
L4238640138L
L408521175L
L2260032962L
L4289786457L
L1638819355L
L3001339796L
L3703836261L
L841169511L
L778143478L
L3345929643L
L1573785578L
L1510678929L
L365187892L
L872814277L
L308740589L
L1948488935L
L3898040900L
L2204549202L
L2430786563L
L1197369783L
L2570822102L
L755866612L
L360578289L
L1072636613L
L3546133586L
L4196628859L
L1772762443L
L2248319173L
L1111608612L
L895920088L
L1263342794L
L3734168805L
L1927185541L
L3099223843L
L3298656554L
L620280882L
L2162463925L
L48392425L
L725746973L
L2148607668L
L3763792635L
L2813627243L
L1058056454L
L641168129L
L3845341248L
L1820697277L
L4236850953L
L272266897L
L2733152299L
L717426100L
L1317283552L
L3810357949L
L1158378907L
L9650627L
L4093567888L
L3938346063L
L1747759294L
L3023519947L
L248356991L
L3425365870L
L664368730L
L1953083023L
L4202406667L
L3223667130L
L1256248040L
L3741089672L
L3190766751L
L277340170L
L107922065L
L3057973416L
L2523538335L
L1061285491L
L3838693737L
L780621226L
L1721368380L
L99556705L
L4281435478L
L960579630L
L231435566L
L2616304679L
L1217657612L
L489705210L
L3939220445L
L1919155193L
L1173955955L
L2053607822L
L2850217468L
L1623109146L
L1894549852L
L3796486756L
L3394462580L
L670836687L
L590725668L
L1500928871L
L3439575938L
L1731589377L
L426937438L
L1461543397L
L345950754L
L361368941L
L1223976799L
L898564909L
L2471481451L
L132371105L
L125634282L
L560482465L
L3098942171L
L4003693805L
L2577143080L
L3179435380L
L1730860274L
L3179887882L
L1636707783L
L1510331708L
L2636611603L
L2177455157L
L991076812L
L2061510342L
L2129745423L
L3247783804L
L438692580L
L702051107L
L3857315639L
L1517925734L
L2407836740L
L1634840178L
L928498580L
L3535423493L
L3559837340L
L920257904L
L3645749881L
L2886571251L
L516652510L
L1540190698L
L126387449L
L4251876024L
L1358582454L
L4222534118L
L924328373L
L528425471L
L4121316709L
L3744790651L
L1700392370L
L779051688L
L2088974678L
L1772679555L
L2327480493L
L2373496454L
L2537576090L
L3325686524L
L3620867734L
L1658793079L
L4256755052L
L1752079590L
L3093402663L
L3123912022L
L2254330024L
L1554054733L
L132428434L
L3699664081L
L1560326749L
L993280754L
L2720840269L
L192924639L
L2579582052L
L1789918722L
L1796577170L
L55862813L
L1308099252L
L2374231240L
L3667813458L
L889044193L
L4151580043L
L3290854803L
L2500197912L
L4065686540L
L2075525605L
L3626363242L
L2552037611L
L2528848106L
L1070860743L
L2407795720L
L3546649866L
L3846037685L
L1982129949L
L1136216095L
L2655450669L
L3404484385L
L1242938610L
L2264780803L
L3883275261L
L1287922776L
L2953126732L
L4141251597L
L796533068L
L4215881718L
L1538625166L
L3102456157L
L641347955L
L3466020522L
L1004520789L
L1517900678L
L239186288L
L3486216092L
L1001224570L
L1190738198L
L1703082502L
L3631510521L
L3212402832L
L2456451205L
L2057461174L
L4271838722L
L3443606900L
L886204072L
L373862357L
L2661652413L
L1305713194L
L3081597957L
L3074022017L
L1987261543L
L2051794502L
L999828204L
L943051746L
L944571269L
L3149289881L
L1613818290L
L3339987756L
L2090055354L
L422040141L
L3794713792L
L1744253168L
L1610905932L
L3140519440L
L728002660L
L2170901809L
L313826469L
L2264967660L
L3376825451L
L857364819L
L3178393007L
L4079157109L
L703421105L
L1768396707L
L1636677875L
L4279370826L
L3421034642L
L3640861356L
L4192607429L
L1845321635L
L3879846927L
L1585688294L
L2226086690L
L2841348079L
L2924428619L
L936578117L
L139066980L
L3062236026L
L16625446L
L177275169L
L1656145071L
L4184309863L
L1548608676L
L2785172663L
L2501035912L
L2416340878L
L2499207229L
L1649197145L
L976122553L
L4081993560L
L3328513963L
L3312315387L
L140230443L
L950380299L
L2540572120L
L1696539301L
L380463058L
L2618996864L
L1025151744L
L1021533320L
L4113401705L
L2877822590L
L4016567458L
L2546897149L
L1416868203L
L41950157L
L2854742480L
L1672550007L
L4018743462L
L3269692534L
L15781868L
L282906089L
L3774686348L
L1981220549L
L2730106609L
L355900538L
L3978160083L
L7953695L
L3050698284L
L828562494L
L2498444256L
L3297134897L
L1199863689L
L2642321189L
L3038696831L
L628992411L
L4200943268L
L2352169576L
L1864196627L
L71109718L
L1444716136L
L1238399615L
L3187482842L
L951341397L
L4109117821L
L1885899226L
L1956949440L
L87320599L
L1491087493L
L3115988080L
L66013202L
L395770750L
L108946456L
L2950507120L
L1731145174L
L392874740L
L2453360542L
L2977522083L
L858783319L
L661197217L
L2646615838L
L4285654113L
L1701792568L
L3708690444L
L1336721340L
L2734325597L
L4226861718L
L3373528985L
L1794324446L
L1621849291L
L3204424817L
L1354593216L
L2002599606L
L458859737L
L4281350500L
L3673645882L
L3533425265L
L3561932226L
L4255574785L
L1131184363L
L2015952233L
L713242775L
L1828405877L
L1978886005L
L3484442864L
L2785137790L
L287550786L
L3638759669L
L14276080L
L1025091176L
L4239413916L
L781618131L
L3220148252L
L3082781949L
L1760159876L
L3570110292L
L2554028605L
L936291328L
L1594867374L
L1701130454L
L1939396301L
L1247847634L
L579634140L
L2662183185L
L1877162842L
L505020754L
L25587888L
L1482816243L
L462419789L
L1254284119L
L3828172353L
L3870241807L
L2886640607L
L4269478929L
L3459199467L
L1464744542L
L731688835L
L2208101022L
L3670839519L
L4152778837L
L2786480731L
L4044308884L
L3107326834L
L283744040L
L2742343051L
L742763847L
L1637943678L
L3378572085L
L2633150552L
L4056547487L
L1199152528L
L2206776384L
L85395479L
L1523412177L
L3804551161L
L2037392142L
L4017626810L
L386825925L
L2444562936L
L2113892066L
L1300618536L
L1013156525L
L2294374304L
L3215483148L
L1424694454L
L81919036L
L2935313192L
L1842948480L
L1501692354L
L2772112024L
L2378515750L
L1619823214L
L2142545554L
L1527832809L
L2756334816L
L727093749L
L3822353404L
L3398498422L
L3196910791L
L4028002933L
L629955087L
L1179618004L
L2694513616L
L3459541230L
L3574035920L
L271579266L
L3010987997L
L3681097188L
L852585531L
L285561339L
L2258732730L
L2744961004L
L3422063323L
L2786432512L
L1605293839L
L82386435L
L4135504223L
L4003613419L
L472390754L
L492618020L
L2996425932L
L3677701577L
L63174386L
L878887905L
L907546196L
L619127372L
L4275043898L
L1486351694L
L2703109477L
L28829403L
L3773333547L
L665277849L
L1058857393L
L2693242636L
L1688775407L
L568129314L
L1009518502L
L384L
tNtp17
sS'torch'
p18
ctorch._utils
_rebuild_tensor
p19
(ctorch
ByteStorage
p20
((lp21
I0
aI0
aI0
aI0
aI0
aI0
aI0
aI0
aI85
aI0
aI0
aI0
aI1
aI0
aI0
aI0
aI28
aI2
aI0
aI0
aI0
aI0
aI0
aI0
aI71
aI215
aI181
aI225
aI0
aI0
aI0
aI0
aI100
aI221
aI142
aI242
aI0
aI0
aI0
aI0
aI144
aI11
aI17
aI254
aI0
aI0
aI0
aI0
aI244
aI93
aI139
aI195
aI0
aI0
aI0
aI0
aI161
aI123
aI64
aI189
aI0
aI0
aI0
aI0
aI211
aI27
aI255
aI30
aI0
aI0
aI0
aI0
aI218
aI166
aI195
aI93
aI0
aI0
aI0
aI0
aI133
aI171
aI96
aI195
aI0
aI0
aI0
aI0
aI149
aI192
aI65
aI153
aI0
aI0
aI0
aI0
aI155
aI106
aI88
aI32
aI0
aI0
aI0
aI0
aI251
aI39
aI87
aI133
aI0
aI0
aI0
aI0
aI187
aI45
aI95
aI187
aI0
aI0
aI0
aI0
aI224
aI229
aI25
aI111
aI0
aI0
aI0
aI0
aI31
aI67
aI215
aI64
aI0
aI0
aI0
aI0
aI139
aI13
aI241
aI132
aI0
aI0
aI0
aI0
aI81
aI168
aI14
aI50
aI0
aI0
aI0
aI0
aI164
aI106
aI107
aI162
aI0
aI0
aI0
aI0
aI195
aI44
aI12
aI194
aI0
aI0
aI0
aI0
aI87
aI231
aI150
aI143
aI0
aI0
aI0
aI0
aI188
aI220
aI88
aI221
aI0
aI0
aI0
aI0
aI211
aI107
aI245
aI25
aI0
aI0
aI0
aI0
aI153
aI232
aI130
aI111
aI0
aI0
aI0
aI0
aI10
aI157
aI89
aI99
aI0
aI0
aI0
aI0
aI194
aI24
aI213
aI89
aI0
aI0
aI0
aI0
aI21
aI237
aI29
aI183
aI0
aI0
aI0
aI0
aI45
aI117
aI106
aI174
aI0
aI0
aI0
aI0
aI198
aI20
aI28
aI19
aI0
aI0
aI0
aI0
aI147
aI157
aI4
aI65
aI0
aI0
aI0
aI0
aI230
aI243
aI174
aI143
aI0
aI0
aI0
aI0
aI133
aI219
aI183
aI236
aI0
aI0
aI0
aI0
aI162
aI41
aI152
aI105
aI0
aI0
aI0
aI0
aI238
aI72
aI12
aI137
aI0
aI0
aI0
aI0
aI157
aI111
aI200
aI158
aI0
aI0
aI0
aI0
aI75
aI175
aI207
aI186
aI0
aI0
aI0
aI0
aI60
aI87
aI145
aI141
aI0
aI0
aI0
aI0
aI75
aI130
aI82
aI192
aI0
aI0
aI0
aI0
aI161
aI142
aI236
aI0
aI0
aI0
aI0
aI0
aI233
aI137
aI87
aI35
aI0
aI0
aI0
aI0
aI17
aI1
aI105
aI68
aI0
aI0
aI0
aI0
aI196
aI108
aI147
aI40
aI0
aI0
aI0
aI0
aI242
aI61
aI238
aI112
aI0
aI0
aI0
aI0
aI10
aI30
aI22
aI202
aI0
aI0
aI0
aI0
aI200
aI130
aI161
aI20
aI0
aI0
aI0
aI0
aI1
aI105
aI157
aI34
aI0
aI0
aI0
aI0
aI115
aI212
aI227
aI48
aI0
aI0
aI0
aI0
aI39
aI26
aI92
aI158
aI0
aI0
aI0
aI0
aI182
aI120
aI62
aI97
aI0
aI0
aI0
aI0
aI204
aI22
aI227
aI154
aI0
aI0
aI0
aI0
aI233
aI23
aI44
aI58
aI0
aI0
aI0
aI0
aI55
aI116
aI32
aI14
aI0
aI0
aI0
aI0
aI246
aI25
aI46
aI110
aI0
aI0
aI0
aI0
aI239
aI185
aI19
aI241
aI0
aI0
aI0
aI0
aI154
aI136
aI243
aI231
aI0
aI0
aI0
aI0
aI214
aI86
aI200
aI35
aI0
aI0
aI0
aI0
aI235
aI255
aI196
aI41
aI0
aI0
aI0
aI0
aI133
aI210
aI31
aI218
aI0
aI0
aI0
aI0
aI151
aI56
aI221
aI205
aI0
aI0
aI0
aI0
aI13
aI128
aI145
aI110
aI0
aI0
aI0
aI0
aI6
aI247
aI233
aI206
aI0
aI0
aI0
aI0
aI135
aI117
aI191
aI75
aI0
aI0
aI0
aI0
aI30
aI202
aI181
aI230
aI0
aI0
aI0
aI0
aI17
aI135
aI181
aI205
aI0
aI0
aI0
aI0
aI244
aI52
aI177
aI173
aI0
aI0
aI0
aI0
aI147
aI148
aI130
aI138
aI0
aI0
aI0
aI0
aI12
aI32
aI237
aI79
aI0
aI0
aI0
aI0
aI23
aI85
aI238
aI211
aI0
aI0
aI0
aI0
aI144
aI49
aI144
aI189
aI0
aI0
aI0
aI0
aI88
aI177
aI87
aI76
aI0
aI0
aI0
aI0
aI200
aI203
aI173
aI26
aI0
aI0
aI0
aI0
aI88
aI71
aI245
aI61
aI0
aI0
aI0
aI0
aI169
aI71
aI39
aI6
aI0
aI0
aI0
aI0
aI123
aI121
aI214
aI153
aI0
aI0
aI0
aI0
aI224
aI19
aI252
aI147
aI0
aI0
aI0
aI0
aI91
aI214
aI226
aI15
aI0
aI0
aI0
aI0
aI154
aI104
aI246
aI190
aI0
aI0
aI0
aI0
aI189
aI237
aI15
aI1
aI0
aI0
aI0
aI0
aI106
aI125
aI84
aI95
aI0
aI0
aI0
aI0
aI57
aI21
aI20
aI173
aI0
aI0
aI0
aI0
aI15
aI152
aI95
aI205
aI0
aI0
aI0
aI0
aI76
aI49
aI224
aI120
aI0
aI0
aI0
aI0
aI90
aI93
aI143
aI116
aI0
aI0
aI0
aI0
aI94
aI121
aI183
aI161
aI0
aI0
aI0
aI0
aI196
aI204
aI127
aI17
aI0
aI0
aI0
aI0
aI177
aI222
aI81
aI147
aI0
aI0
aI0
aI0
aI110
aI119
aI114
aI68
aI0
aI0
aI0
aI0
aI137
aI66
aI111
aI55
aI0
aI0
aI0
aI0
aI105
aI183
aI25
aI244
aI0
aI0
aI0
aI0
aI35
aI184
aI196
aI122
aI0
aI0
aI0
aI0
aI84
aI111
aI19
aI171
aI0
aI0
aI0
aI0
aI40
aI145
aI208
aI50
aI0
aI0
aI0
aI0
aI96
aI246
aI65
aI16
aI0
aI0
aI0
aI0
aI12
aI222
aI190
aI165
aI0
aI0
aI0
aI0
aI139
aI49
aI34
aI196
aI0
aI0
aI0
aI0
aI209
aI161
aI154
aI116
aI0
aI0
aI0
aI0
aI228
aI121
aI227
aI68
aI0
aI0
aI0
aI0
aI219
aI128
aI76
aI4
aI0
aI0
aI0
aI0
aI16
aI61
aI126
aI139
aI0
aI0
aI0
aI0
aI147
aI13
aI23
aI17
aI0
aI0
aI0
aI0
aI210
aI35
aI108
aI159
aI0
aI0
aI0
aI0
aI116
aI45
aI119
aI50
aI0
aI0
aI0
aI0
aI251
aI67
aI237
aI43
aI0
aI0
aI0
aI0
aI85
aI118
aI235
aI79
aI0
aI0
aI0
aI0
aI220
aI223
aI35
aI156
aI0
aI0
aI0
aI0
aI32
aI36
aI9
aI139
aI0
aI0
aI0
aI0
aI43
aI94
aI184
aI71
aI0
aI0
aI0
aI0
aI176
aI108
aI124
aI173
aI0
aI0
aI0
aI0
aI121
aI74
aI168
aI186
aI0
aI0
aI0
aI0
aI222
aI37
aI179
aI79
aI0
aI0
aI0
aI0
aI85
aI132
aI148
aI86
aI0
aI0
aI0
aI0
aI240
aI138
aI4
aI64
aI0
aI0
aI0
aI0
aI6
aI156
aI115
aI124
aI0
aI0
aI0
aI0
aI63
aI47
aI148
aI94
aI0
aI0
aI0
aI0
aI180
aI127
aI236
aI114
aI0
aI0
aI0
aI0
aI254
aI107
aI194
aI112
aI0
aI0
aI0
aI0
aI7
aI229
aI234
aI216
aI0
aI0
aI0
aI0
aI115
aI243
aI48
aI147
aI0
aI0
aI0
aI0
aI249
aI240
aI225
aI224
aI0
aI0
aI0
aI0
aI47
aI194
aI60
aI75
aI0
aI0
aI0
aI0
aI194
aI215
aI152
aI98
aI0
aI0
aI0
aI0
aI98
aI212
aI214
aI189
aI0
aI0
aI0
aI0
aI38
aI236
aI59
aI97
aI0
aI0
aI0
aI0
aI159
aI187
aI145
aI77
aI0
aI0
aI0
aI0
aI20
aI129
aI21
aI133
aI0
aI0
aI0
aI0
aI190
aI163
aI199
aI226
aI0
aI0
aI0
aI0
aI228
aI41
aI18
aI152
aI0
aI0
aI0
aI0
aI94
aI61
aI232
aI173
aI0
aI0
aI0
aI0
aI129
aI251
aI193
aI242
aI0
aI0
aI0
aI0
aI24
aI174
aI32
aI90
aI0
aI0
aI0
aI0
aI166
aI191
aI102
aI186
aI0
aI0
aI0
aI0
aI63
aI5
aI70
aI221
aI0
aI0
aI0
aI0
aI54
aI126
aI204
aI93
aI0
aI0
aI0
aI0
aI208
aI249
aI168
aI48
aI0
aI0
aI0
aI0
aI193
aI204
aI122
aI55
aI0
aI0
aI0
aI0
aI56
aI171
aI99
aI138
aI0
aI0
aI0
aI0
aI159
aI119
aI167
aI118
aI0
aI0
aI0
aI0
aI7
aI153
aI93
aI134
aI0
aI0
aI0
aI0
aI38
aI35
aI118
aI58
aI0
aI0
aI0
aI0
aI226
aI204
aI80
aI90
aI0
aI0
aI0
aI0
aI10
aI79
aI216
aI10
aI0
aI0
aI0
aI0
aI197
aI181
aI176
aI111
aI0
aI0
aI0
aI0
aI175
aI149
aI10
aI0
aI0
aI0
aI0
aI0
aI236
aI45
aI3
aI174
aI0
aI0
aI0
aI0
aI86
aI171
aI124
aI50
aI0
aI0
aI0
aI0
aI179
aI67
aI226
aI60
aI0
aI0
aI0
aI0
aI90
aI26
aI232
aI39
aI0
aI0
aI0
aI0
aI140
aI156
aI109
aI23
aI0
aI0
aI0
aI0
aI144
aI90
aI131
aI105
aI0
aI0
aI0
aI0
aI126
aI137
aI224
aI41
aI0
aI0
aI0
aI0
aI62
aI31
aI37
aI160
aI0
aI0
aI0
aI0
aI159
aI116
aI43
aI140
aI0
aI0
aI0
aI0
aI116
aI8
aI161
aI195
aI0
aI0
aI0
aI0
aI36
aI121
aI42
aI59
aI0
aI0
aI0
aI0
aI51
aI222
aI73
aI226
aI0
aI0
aI0
aI0
aI7
aI37
aI101
aI240
aI0
aI0
aI0
aI0
aI239
aI128
aI155
aI175
aI0
aI0
aI0
aI0
aI59
aI117
aI245
aI128
aI0
aI0
aI0
aI0
aI170
aI15
aI188
aI93
aI0
aI0
aI0
aI0
aI19
aI174
aI42
aI171
aI0
aI0
aI0
aI0
aI211
aI107
aI114
aI254
aI0
aI0
aI0
aI0
aI253
aI228
aI127
aI206
aI0
aI0
aI0
aI0
aI26
aI115
aI217
aI33
aI0
aI0
aI0
aI0
aI93
aI242
aI157
aI251
aI0
aI0
aI0
aI0
aI42
aI91
aI52
aI39
aI0
aI0
aI0
aI0
aI191
aI242
aI11
aI247
aI0
aI0
aI0
aI0
aI69
aI154
aI235
aI64
aI0
aI0
aI0
aI0
aI42
aI82
aI214
aI85
aI0
aI0
aI0
aI0
aI168
aI13
aI60
aI248
aI0
aI0
aI0
aI0
aI135
aI182
aI202
aI230
aI0
aI0
aI0
aI0
aI10
aI212
aI174
aI252
aI0
aI0
aI0
aI0
aI103
aI113
aI53
aI208
aI0
aI0
aI0
aI0
aI76
aI15
aI150
aI169
aI0
aI0
aI0
aI0
aI69
aI244
aI2
aI196
aI0
aI0
aI0
aI0
aI230
aI14
aI230
aI80
aI0
aI0
aI0
aI0
aI246
aI134
aI239
aI11
aI0
aI0
aI0
aI0
aI189
aI145
aI3
aI95
aI0
aI0
aI0
aI0
aI98
aI157
aI104
aI87
aI0
aI0
aI0
aI0
aI76
aI65
aI124
aI4
aI0
aI0
aI0
aI0
aI185
aI112
aI186
aI185
aI0
aI0
aI0
aI0
aI61
aI206
aI73
aI12
aI0
aI0
aI0
aI0
aI93
aI34
aI245
aI53
aI0
aI0
aI0
aI0
aI194
aI149
aI29
aI39
aI0
aI0
aI0
aI0
aI134
aI38
aI159
aI137
aI0
aI0
aI0
aI0
aI115
aI152
aI135
aI196
aI0
aI0
aI0
aI0
aI12
aI102
aI99
aI225
aI0
aI0
aI0
aI0
aI135
aI79
aI112
aI125
aI0
aI0
aI0
aI0
aI231
aI47
aI168
aI227
aI0
aI0
aI0
aI0
aI109
aI221
aI222
aI52
aI0
aI0
aI0
aI0
aI231
aI124
aI229
aI58
aI0
aI0
aI0
aI0
aI16
aI228
aI19
aI44
aI0
aI0
aI0
aI0
aI53
aI117
aI137
aI170
aI0
aI0
aI0
aI0
aI155
aI146
aI30
aI216
aI0
aI0
aI0
aI0
aI111
aI89
aI210
aI194
aI0
aI0
aI0
aI0
aI31
aI8
aI76
aI253
aI0
aI0
aI0
aI0
aI145
aI111
aI210
aI125
aI0
aI0
aI0
aI0
aI171
aI221
aI133
aI196
aI0
aI0
aI0
aI0
aI120
aI143
aI111
aI71
aI0
aI0
aI0
aI0
aI235
aI1
aI135
aI246
aI0
aI0
aI0
aI0
aI201
aI244
aI68
aI186
aI0
aI0
aI0
aI0
aI47
aI53
aI96
aI238
aI0
aI0
aI0
aI0
aI124
aI166
aI45
aI25
aI0
aI0
aI0
aI0
aI68
aI18
aI114
aI19
aI0
aI0
aI0
aI0
aI90
aI7
aI76
aI97
aI0
aI0
aI0
aI0
aI93
aI193
aI117
aI38
aI0
aI0
aI0
aI0
aI164
aI251
aI234
aI17
aI0
aI0
aI0
aI0
aI12
aI69
aI108
aI239
aI0
aI0
aI0
aI0
aI115
aI135
aI1
aI55
aI0
aI0
aI0
aI0
aI27
aI236
aI197
aI173
aI0
aI0
aI0
aI0
aI72
aI76
aI82
aI172
aI0
aI0
aI0
aI0
aI6
aI161
aI175
aI246
aI0
aI0
aI0
aI0
aI197
aI228
aI68
aI131
aI0
aI0
aI0
aI0
aI147
aI211
aI6
aI244
aI0
aI0
aI0
aI0
aI120
aI95
aI59
aI54
aI0
aI0
aI0
aI0
aI14
aI87
aI226
aI137
aI0
aI0
aI0
aI0
aI122
aI64
aI34
aI97
aI0
aI0
aI0
aI0
aI238
aI75
aI212
aI184
aI0
aI0
aI0
aI0
aI153
aI207
aI79
aI225
aI0
aI0
aI0
aI0
aI53
aI34
aI224
aI85
aI0
aI0
aI0
aI0
aI153
aI97
aI125
aI190
aI0
aI0
aI0
aI0
aI83
aI194
aI226
aI159
aI0
aI0
aI0
aI0
aI117
aI37
aI95
aI156
aI0
aI0
aI0
aI0
aI184
aI57
aI116
aI2
aI0
aI0
aI0
aI0
aI191
aI94
aI125
aI212
aI0
aI0
aI0
aI0
aI71
aI86
aI216
aI154
aI0
aI0
aI0
aI0
aI219
aI239
aI175
aI138
aI0
aI0
aI0
aI0
aI170
aI78
aI191
aI89
aI0
aI0
aI0
aI0
aI23
aI247
aI138
aI3
aI0
aI0
aI0
aI0
aI254
aI62
aI119
aI226
aI0
aI0
aI0
aI0
aI201
aI93
aI44
aI66
aI0
aI0
aI0
aI0
aI91
aI164
aI77
aI209
aI0
aI0
aI0
aI0
aI58
aI217
aI240
aI231
aI0
aI0
aI0
aI0
aI231
aI240
aI57
aI217
aI0
aI0
aI0
aI0
aI136
aI167
aI117
aI187
aI0
aI0
aI0
aI0
aI138
aI155
aI223
aI204
aI0
aI0
aI0
aI0
aI223
aI252
aI248
aI59
aI0
aI0
aI0
aI0
aI13
aI187
aI184
aI170
aI0
aI0
aI0
aI0
aI218
aI223
aI147
aI99
aI0
aI0
aI0
aI0
aI126
aI14
aI31
aI55
aI0
aI0
aI0
aI0
aI230
aI100
aI48
aI66
aI0
aI0
aI0
aI0
aI214
aI126
aI23
aI232
aI0
aI0
aI0
aI0
aI45
aI73
aI62
aI182
aI0
aI0
aI0
aI0
aI26
aI138
aI66
aI16
aI0
aI0
aI0
aI0
aI51
aI197
aI210
aI82
aI0
aI0
aI0
aI0
aI66
aI212
aI85
aI52
aI0
aI0
aI0
aI0
aI170
aI77
aI152
aI199
aI0
aI0
aI0
aI0
aI195
aI50
aI115
aI255
aI0
aI0
aI0
aI0
aI43
aI218
aI26
aI211
aI0
aI0
aI0
aI0
aI1
aI102
aI206
aI30
aI0
aI0
aI0
aI0
aI161
aI226
aI203
aI212
aI0
aI0
aI0
aI0
aI10
aI140
aI210
aI7
aI0
aI0
aI0
aI0
aI143
aI19
aI243
aI236
aI0
aI0
aI0
aI0
aI61
aI179
aI9
aI153
aI0
aI0
aI0
aI0
aI220
aI34
aI213
aI144
aI0
aI0
aI0
aI0
aI156
aI197
aI69
aI48
aI0
aI0
aI0
aI0
aI66
aI196
aI104
aI66
aI0
aI0
aI0
aI0
aI21
aI183
aI143
aI148
aI0
aI0
aI0
aI0
aI236
aI13
aI81
aI29
aI0
aI0
aI0
aI0
aI166
aI104
aI84
aI14
aI0
aI0
aI0
aI0
aI153
aI145
aI8
aI116
aI0
aI0
aI0
aI0
aI186
aI20
aI31
aI230
aI0
aI0
aI0
aI0
aI229
aI212
aI25
aI122
aI0
aI0
aI0
aI0
aI25
aI170
aI209
aI33
aI0
aI0
aI0
aI0
aI34
aI211
aI91
aI66
aI0
aI0
aI0
aI0
aI176
aI181
aI138
aI237
aI0
aI0
aI0
aI0
aI251
aI148
aI93
aI138
aI0
aI0
aI0
aI0
aI93
aI23
aI100
aI228
aI0
aI0
aI0
aI0
aI236
aI224
aI183
aI90
aI0
aI0
aI0
aI0
aI219
aI69
aI4
aI143
aI0
aI0
aI0
aI0
aI157
aI223
aI2
aI134
aI0
aI0
aI0
aI0
aI65
aI108
aI179
aI117
aI0
aI0
aI0
aI0
aI110
aI19
aI215
aI83
aI0
aI0
aI0
aI0
aI28
aI117
aI130
aI29
aI0
aI0
aI0
aI0
aI85
aI164
aI195
aI177
aI0
aI0
aI0
aI0
aI122
aI246
aI92
aI226
aI0
aI0
aI0
aI0
aI158
aI235
aI107
aI140
aI0
aI0
aI0
aI0
aI113
aI124
aI174
aI48
aI0
aI0
aI0
aI0
aI87
aI232
aI65
aI184
aI0
aI0
aI0
aI0
aI179
aI71
aI162
aI6
aI0
aI0
aI0
aI0
aI220
aI84
aI120
aI241
aI0
aI0
aI0
aI0
aI245
aI77
aI210
aI65
aI0
aI0
aI0
aI0
aI123
aI0
aI175
aI239
aI0
aI0
aI0
aI0
aI37
aI188
aI250
aI135
aI0
aI0
aI0
aI0
aI163
aI242
aI212
aI9
aI0
aI0
aI0
aI0
aI63
aI45
aI1
aI73
aI0
aI0
aI0
aI0
aI162
aI169
aI253
aI183
aI0
aI0
aI0
aI0
aI173
aI27
aI52
aI137
aI0
aI0
aI0
aI0
aI84
aI251
aI90
aI195
aI0
aI0
aI0
aI0
aI239
aI0
aI122
aI227
aI0
aI0
aI0
aI0
aI61
aI245
aI206
aI193
aI0
aI0
aI0
aI0
aI38
aI42
aI239
aI127
aI0
aI0
aI0
aI0
aI226
aI97
aI112
aI60
aI0
aI0
aI0
aI0
aI132
aI30
aI114
aI180
aI0
aI0
aI0
aI0
aI236
aI163
aI205
aI224
aI0
aI0
aI0
aI0
aI122
aI29
aI172
aI206
aI0
aI0
aI0
aI0
aI251
aI89
aI241
aI115
aI0
aI0
aI0
aI0
aI161
aI112
aI110
aI204
aI0
aI0
aI0
aI0
aI75
aI18
aI246
aI139
aI0
aI0
aI0
aI0
aI198
aI69
aI200
aI186
aI0
aI0
aI0
aI0
aI127
aI147
aI85
aI70
aI0
aI0
aI0
aI0
aI26
aI192
aI234
aI49
aI0
aI0
aI0
aI0
aI149
aI164
aI11
aI159
aI0
aI0
aI0
aI0
aI45
aI3
aI131
aI37
aI0
aI0
aI0
aI0
aI9
aI205
aI71
aI79
aI0
aI0
aI0
aI0
aI3
aI235
aI100
aI248
aI0
aI0
aI0
aI0
aI12
aI64
aI201
aI143
aI0
aI0
aI0
aI0
aI18
aI57
aI98
aI235
aI0
aI0
aI0
aI0
aI75
aI92
aI149
aI5
aI0
aI0
aI0
aI0
aI71
aI140
aI18
aI31
aI0
aI0
aI0
aI0
aI76
aI175
aI104
aI40
aI0
aI0
aI0
aI0
aI62
aI252
aI24
aI60
aI0
aI0
aI0
aI0
aI77
aI113
aI163
aI234
aI0
aI0
aI0
aI0
aI12
aI76
aI154
aI111
aI0
aI0
aI0
aI0
aI68
aI110
aI55
aI88
aI0
aI0
aI0
aI0
aI182
aI245
aI9
aI5
aI0
aI0
aI0
aI0
aI242
aI235
aI221
aI184
aI0
aI0
aI0
aI0
aI34
aI170
aI218
aI100
aI0
aI0
aI0
aI0
aI95
aI90
aI127
aI200
aI0
aI0
aI0
aI0
aI174
aI113
aI150
aI112
aI0
aI0
aI0
aI0
aI20
aI5
aI110
aI69
aI0
aI0
aI0
aI0
aI40
aI111
aI218
aI125
aI0
aI0
aI0
aI0
aI60
aI212
aI8
aI114
aI0
aI0
aI0
aI0
aI201
aI88
aI40
aI236
aI0
aI0
aI0
aI0
aI85
aI162
aI180
aI10
aI0
aI0
aI0
aI0
aI175
aI234
aI18
aI226
aI0
aI0
aI0
aI0
aI100
aI183
aI184
aI190
aI0
aI0
aI0
aI0
aI89
aI120
aI217
aI155
aI0
aI0
aI0
aI0
aI71
aI41
aI191
aI60
aI0
aI0
aI0
aI0
aI101
aI254
aI233
aI24
aI0
aI0
aI0
aI0
aI216
aI201
aI87
aI210
aI0
aI0
aI0
aI0
aI253
aI204
aI188
aI115
aI0
aI0
aI0
aI0
aI219
aI183
aI166
aI160
aI0
aI0
aI0
aI0
aI46
aI66
aI188
aI85
aI0
aI0
aI0
aI0
aI157
aI135
aI178
aI26
aI0
aI0
aI0
aI0
aI124
aI152
aI53
aI10
aI0
aI0
aI0
aI0
aI17
aI158
aI65
aI110
aI0
aI0
aI0
aI0
aI199
aI143
aI214
aI164
aI0
aI0
aI0
aI0
aI246
aI52
aI92
aI43
aI0
aI0
aI0
aI0
aI215
aI47
aI227
aI247
aI0
aI0
aI0
aI0
aI91
aI8
aI237
aI154
aI0
aI0
aI0
aI0
aI80
aI242
aI65
aI173
aI0
aI0
aI0
aI0
aI76
aI31
aI252
aI64
aI0
aI0
aI0
aI0
aI250
aI196
aI224
aI151
aI0
aI0
aI0
aI0
aI150
aI255
aI144
aI132
aI0
aI0
aI0
aI0
aI134
aI164
aI70
aI225
aI0
aI0
aI0
aI0
aI44
aI132
aI135
aI112
aI0
aI0
aI0
aI0
aI185
aI44
aI88
aI242
aI0
aI0
aI0
aI0
aI198
aI223
aI160
aI249
aI0
aI0
aI0
aI0
aI102
aI84
aI164
aI62
aI0
aI0
aI0
aI0
aI25
aI141
aI35
aI101
aI0
aI0
aI0
aI0
aI115
aI174
aI100
aI151
aI0
aI0
aI0
aI0
aI47
aI177
aI173
aI14
aI0
aI0
aI0
aI0
aI119
aI243
aI75
aI140
aI0
aI0
aI0
aI0
aI183
aI219
aI152
aI59
aI0
aI0
aI0
aI0
aI171
aI145
aI198
aI94
aI0
aI0
aI0
aI0
aI95
aI218
aI208
aI119
aI0
aI0
aI0
aI0
aI50
aI186
aI251
aI216
aI0
aI0
aI0
aI0
aI191
aI99
aI122
aI209
aI0
aI0
aI0
aI0
aI56
aI50
aI33
aI121
aI0
aI0
aI0
aI0
aI84
aI64
aI250
aI174
aI0
aI0
aI0
aI0
aI254
aI86
aI5
aI224
aI0
aI0
aI0
aI0
aI240
aI246
aI223
aI52
aI0
aI0
aI0
aI0
aI114
aI2
aI43
aI157
aI0
aI0
aI0
aI0
aI186
aI241
aI243
aI213
aI0
aI0
aI0
aI0
aI24
aI35
aI92
aI93
aI0
aI0
aI0
aI0
aI93
aI44
aI209
aI194
aI0
aI0
aI0
aI0
aI207
aI210
aI20
aI178
aI0
aI0
aI0
aI0
aI93
aI195
aI105
aI176
aI0
aI0
aI0
aI0
aI196
aI16
aI198
aI210
aI0
aI0
aI0
aI0
aI204
aI25
aI240
aI3
aI0
aI0
aI0
aI0
aI42
aI254
aI193
aI6
aI0
aI0
aI0
aI0
aI232
aI170
aI40
aI226
aI0
aI0
aI0
aI0
aI48
aI102
aI213
aI253
aI0
aI0
aI0
aI0
aI5
aI2
aI254
aI180
aI0
aI0
aI0
aI0
aI35
aI201
aI148
aI176
aI0
aI0
aI0
aI0
aI165
aI196
aI8
aI143
aI0
aI0
aI0
aI0
aI147
aI85
aI198
aI46
aI0
aI0
aI0
aI0
aI249
aI202
aI192
aI214
aI0
aI0
aI0
aI0
aI26
aI69
aI106
aI190
aI0
aI0
aI0
aI0
aI164
aI182
aI195
aI91
aI0
aI0
aI0
aI0
aI206
aI18
aI240
aI83
aI0
aI0
aI0
aI0
aI219
aI126
aI228
aI29
aI0
aI0
aI0
aI0
aI89
aI100
aI57
aI13
aI0
aI0
aI0
aI0
aI190
aI86
aI0
aI12
aI0
aI0
aI0
aI0
aI98
aI100
aI146
aI180
aI0
aI0
aI0
aI0
aI221
aI115
aI253
aI148
aI0
aI0
aI0
aI0
aI53
aI132
aI147
aI82
aI0
aI0
aI0
aI0
aI204
aI206
aI198
aI16
aI0
aI0
aI0
aI0
aI219
aI221
aI249
aI186
aI0
aI0
aI0
aI0
aI198
aI97
aI32
aI129
aI0
aI0
aI0
aI0
aI109
aI15
aI103
aI132
aI0
aI0
aI0
aI0
aI190
aI208
aI13
aI56
aI0
aI0
aI0
aI0
aI79
aI152
aI132
aI148
aI0
aI0
aI0
aI0
aI195
aI139
aI183
aI3
aI0
aI0
aI0
aI0
aI89
aI228
aI241
aI89
aI0
aI0
aI0
aI0
aI240
aI15
aI120
aI167
aI0
aI0
aI0
aI0
aI19
aI167
aI58
aI147
aI0
aI0
aI0
aI0
aI98
aI142
aI77
aI101
aI0
aI0
aI0
aI0
aI22
aI185
aI106
aI115
aI0
aI0
aI0
aI0
aI72
aI107
aI173
aI249
aI0
aI0
aI0
aI0
aI17
aI249
aI220
aI241
aI0
aI0
aI0
aI0
aI147
aI216
aI109
aI190
aI0
aI0
aI0
aI0
aI224
aI162
aI210
aI213
aI0
aI0
aI0
aI0
aI30
aI91
aI175
aI116
aI0
aI0
aI0
aI0
aI234
aI58
aI239
aI101
aI0
aI0
aI0
aI0
aI234
aI251
aI98
aI232
aI0
aI0
aI0
aI0
aI179
aI111
aI99
aI91
aI0
aI0
aI0
aI0
aI78
aI138
aI151
aI216
aI0
aI0
aI0
aI0
aI150
aI145
aI143
aI195
aI0
aI0
aI0
aI0
aI89
aI208
aI218
aI209
aI0
aI0
aI0
aI0
aI193
aI59
aI76
aI79
aI0
aI0
aI0
aI0
aI225
aI58
aI187
aI118
aI0
aI0
aI0
aI0
aI129
aI54
aI123
aI241
aI0
aI0
aI0
aI0
aI129
aI38
aI122
aI210
aI0
aI0
aI0
aI0
aI26
aI228
aI24
aI196
aI0
aI0
aI0
aI0
aI220
aI167
aI245
aI155
aI0
aI0
aI0
aI0
aI171
aI165
aI121
aI45
aI0
aI0
aI0
aI0
aI178
aI103
aI102
aI126
aI0
aI0
aI0
aI0
aI71
aI4
aI191
aI218
aI0
aI0
aI0
aI0
aI11
aI154
aI54
aI160
aI0
aI0
aI0
aI0
aI66
aI3
aI213
aI118
aI0
aI0
aI0
aI0
aI207
aI124
aI84
aI176
aI0
aI0
aI0
aI0
aI227
aI213
aI226
aI188
aI0
aI0
aI0
aI0
aI163
aI164
aI13
aI149
aI0
aI0
aI0
aI0
aI189
aI235
aI3
aI134
aI0
aI0
aI0
aI0
aI107
aI120
aI107
aI255
aI0
aI0
aI0
aI0
aI17
aI209
aI73
aI16
aI0
aI0
aI0
aI0
aI251
aI226
aI18
aI118
aI0
aI0
aI0
aI0
aI251
aI168
aI189
aI66
aI0
aI0
aI0
aI0
aI53
aI38
aI70
aI132
aI0
aI0
aI0
aI0
aI177
aI242
aI132
aI253
aI0
aI0
aI0
aI0
aI235
aI80
aI8
aI153
aI0
aI0
aI0
aI0
aI89
aI105
aI11
aI109
aI0
aI0
aI0
aI0
aI69
aI210
aI221
aI178
aI0
aI0
aI0
aI0
aI108
aI53
aI152
aI39
aI0
aI0
aI0
aI0
aI90
aI161
aI121
aI142
aI0
aI0
aI0
aI0
aI26
aI163
aI37
aI27
aI0
aI0
aI0
aI0
aI72
aI11
aI18
aI97
aI0
aI0
aI0
aI0
aI25
aI164
aI231
aI28
aI0
aI0
aI0
aI0
aI210
aI127
aI209
aI24
aI0
aI0
aI0
aI0
aI69
aI111
aI124
aI170
aI0
aI0
aI0
aI0
aI157
aI198
aI167
aI16
aI0
aI0
aI0
aI0
aI16
aI185
aI45
aI229
aI0
aI0
aI0
aI0
aI96
aI94
aI182
aI165
aI0
aI0
aI0
aI0
aI129
aI20
aI219
aI254
aI0
aI0
aI0
aI0
aI156
aI82
aI138
aI196
aI0
aI0
aI0
aI0
aI20
aI36
aI61
aI252
aI0
aI0
aI0
aI0
aI48
aI240
aI229
aI31
aI0
aI0
aI0
aI0
aI92
aI109
aI127
aI6
aI0
aI0
aI0
aI0
aI52
aI154
aI212
aI239
aI0
aI0
aI0
aI0
aI188
aI229
aI168
aI253
aI0
aI0
aI0
aI0
aI136
aI205
aI157
aI131
aI0
aI0
aI0
aI0
aI61
aI126
aI241
aI239
aI0
aI0
aI0
aI0
aI137
aI160
aI95
aI36
aI0
aI0
aI0
aI0
aI105
aI12
aI13
aI43
aI0
aI0
aI0
aI0
aI201
aI80
aI202
aI4
aI0
aI0
aI0
aI0
aI100
aI114
aI122
aI21
aI0
aI0
aI0
aI0
aI75
aI3
aI218
aI68
aI0
aI0
aI0
aI0
aI74
aI135
aI35
aI32
aI0
aI0
aI0
aI0
aI227
aI20
aI191
aI227
aI0
aI0
aI0
aI0
aI137
aI92
aI47
aI192
aI0
aI0
aI0
aI0
aI133
aI171
aI95
aI161
aI0
aI0
aI0
aI0
aI237
aI197
aI157
aI164
aI0
aI0
aI0
aI0
aI166
aI44
aI53
aI242
aI0
aI0
aI0
aI0
aI149
aI210
aI143
aI206
aI0
aI0
aI0
aI0
aI116
aI211
aI32
aI176
aI0
aI0
aI0
aI0
aI217
aI25
aI25
aI89
aI0
aI0
aI0
aI0
aI241
aI190
aI52
aI206
aI0
aI0
aI0
aI0
aI135
aI170
aI62
aI66
aI0
aI0
aI0
aI0
aI9
aI214
aI202
aI62
aI0
aI0
aI0
aI0
aI108
aI63
aI222
aI254
aI0
aI0
aI0
aI0
aI152
aI94
aI67
aI208
aI0
aI0
aI0
aI0
aI246
aI106
aI197
aI232
aI0
aI0
aI0
aI0
aI95
aI179
aI129
aI92
aI0
aI0
aI0
aI0
aI237
aI228
aI74
aI114
aI0
aI0
aI0
aI0
aI94
aI18
aI26
aI185
aI0
aI0
aI0
aI0
aI177
aI151
aI60
aI134
aI0
aI0
aI0
aI0
aI45
aI50
aI98
aI62
aI0
aI0
aI0
aI0
aI127
aI198
aI251
aI104
aI0
aI0
aI0
aI0
aI119
aI214
aI184
aI42
aI0
aI0
aI0
aI0
aI91
aI217
aI5
aI0
aI0
aI0
aI0
aI0
aI189
aI161
aI236
aI180
aI0
aI0
aI0
aI0
aI200
aI108
aI138
aI48
aI0
aI0
aI0
aI0
aI111
aI202
aI155
aI104
aI0
aI0
aI0
aI0
aI192
aI212
aI154
aI100
aI0
aI0
aI0
aI0
aI208
aI170
aI218
aI158
aI0
aI0
aI0
aI0
aI28
aI42
aI160
aI17
aI0
aI0
aI0
aI0
aI69
aI152
aI47
aI119
aI0
aI0
aI0
aI0
aI218
aI240
aI133
aI200
aI0
aI0
aI0
aI0
aI28
aI155
aI188
aI9
aI0
aI0
aI0
aI0
aI131
aI55
aI138
aI35
aI0
aI0
aI0
aI0
aI57
aI27
aI30
aI132
aI0
aI0
aI0
aI0
aI237
aI248
aI104
aI127
aI0
aI0
aI0
aI0
aI245
aI210
aI79
aI165
aI0
aI0
aI0
aI0
aI13
aI105
aI180
aI44
aI0
aI0
aI0
aI0
aI248
aI104
aI22
aI236
aI0
aI0
aI0
aI0
aI9
aI166
aI173
aI30
aI0
aI0
aI0
aI0
aI223
aI69
aI207
aI181
aI0
aI0
aI0
aI0
aI248
aI161
aI30
aI87
aI0
aI0
aI0
aI0
aI222
aI246
aI237
aI174
aI0
aI0
aI0
aI0
aI183
aI243
aI183
aI22
aI0
aI0
aI0
aI0
aI38
aI207
aI49
aI151
aI0
aI0
aI0
aI0
aI220
aI101
aI90
aI254
aI0
aI0
aI0
aI0
aI68
aI95
aI23
aI216
aI0
aI0
aI0
aI0
aI116
aI129
aI89
aI249
aI0
aI0
aI0
aI0
aI227
aI139
aI215
aI230
aI0
aI0
aI0
aI0
aI178
aI66
aI68
aI108
aI0
aI0
aI0
aI0
aI128
aI224
aI145
aI103
aI0
aI0
aI0
aI0
aI133
aI68
aI2
aI44
aI0
aI0
aI0
aI0
aI216
aI114
aI145
aI31
aI0
aI0
aI0
aI0
aI32
aI171
aI66
aI186
aI0
aI0
aI0
aI0
aI233
aI106
aI156
aI120
aI0
aI0
aI0
aI0
aI92
aI163
aI166
aI230
aI0
aI0
aI0
aI0
aI211
aI202
aI182
aI13
aI0
aI0
aI0
aI0
aI149
aI249
aI42
aI87
aI0
aI0
aI0
aI0
aI103
aI71
aI248
aI8
aI0
aI0
aI0
aI0
aI117
aI194
aI80
aI141
aI0
aI0
aI0
aI0
aI62
aI130
aI152
aI96
aI0
aI0
aI0
aI0
aI213
aI114
aI138
aI45
aI0
aI0
aI0
aI0
aI201
aI115
aI51
aI170
aI0
aI0
aI0
aI0
aI60
aI150
aI32
aI177
aI0
aI0
aI0
aI0
aI35
aI140
aI159
aI145
aI0
aI0
aI0
aI0
aI217
aI91
aI180
aI150
aI0
aI0
aI0
aI0
aI11
aI132
aI30
aI73
aI0
aI0
aI0
aI0
aI75
aI201
aI11
aI172
aI0
aI0
aI0
aI0
aI114
aI96
aI168
aI181
aI0
aI0
aI0
aI0
aI160
aI82
aI206
aI200
aI0
aI0
aI0
aI0
aI255
aI144
aI128
aI95
aI0
aI0
aI0
aI0
aI170
aI110
aI244
aI119
aI0
aI0
aI0
aI0
aI165
aI36
aI38
aI84
aI0
aI0
aI0
aI0
aI250
aI112
aI47
aI185
aI0
aI0
aI0
aI0
aI11
aI160
aI207
aI223
aI0
aI0
aI0
aI0
aI191
aI211
aI129
aI5
aI0
aI0
aI0
aI0
aI122
aI248
aI98
aI134
aI0
aI0
aI0
aI0
aI187
aI236
aI61
aI205
aI0
aI0
aI0
aI0
aI182
aI0
aI134
aI239
aI0
aI0
aI0
aI0
aI45
aI81
aI217
aI67
aI0
aI0
aI0
aI0
aI226
aI210
aI56
aI240
aI0
aI0
aI0
aI0
aI151
aI107
aI43
aI143
aI0
aI0
aI0
aI0
aI35
aI38
aI228
aI149
aI0
aI0
aI0
aI0
aI173
aI165
aI22
aI56
aI0
aI0
aI0
aI0
aI165
aI60
aI29
aI72
aI0
aI0
aI0
aI0
aI205
aI34
aI104
aI210
aI0
aI0
aI0
aI0
aI141
aI246
aI140
aI3
aI0
aI0
aI0
aI0
aI166
aI210
aI12
aI233
aI0
aI0
aI0
aI0
aI250
aI125
aI53
aI209
aI0
aI0
aI0
aI0
aI240
aI236
aI216
aI207
aI0
aI0
aI0
aI0
aI88
aI56
aI95
aI123
aI0
aI0
aI0
aI0
aI214
aI255
aI221
aI137
aI0
aI0
aI0
aI0
aI225
aI82
aI128
aI93
aI0
aI0
aI0
aI0
aI10
aI107
aI39
aI9
aI0
aI0
aI0
aI0
aI60
aI34
aI158
aI4
aI0
aI0
aI0
aI0
aI216
aI230
aI25
aI243
aI0
aI0
aI0
aI0
aI197
aI240
aI40
aI167
aI0
aI0
aI0
aI0
aI68
aI201
aI238
aI52
aI0
aI0
aI0
aI0
aI43
aI223
aI123
aI21
aI0
aI0
aI0
aI0
aI201
aI47
aI232
aI114
aI0
aI0
aI0
aI0
aI166
aI241
aI147
aI136
aI0
aI0
aI0
aI0
aI101
aI74
aI109
aI251
aI0
aI0
aI0
aI0
aI18
aI19
aI59
aI104
aI0
aI0
aI0
aI0
aI157
aI238
aI195
aI127
aI0
aI0
aI0
aI0
aI233
aI126
aI171
aI72
aI0
aI0
aI0
aI0
aI163
aI204
aI214
aI105
aI0
aI0
aI0
aI0
aI176
aI64
aI121
aI222
aI0
aI0
aI0
aI0
aI72
aI85
aI131
aI144
aI0
aI0
aI0
aI0
aI221
aI126
aI20
aI42
aI0
aI0
aI0
aI0
aI55
aI9
aI79
aI48
aI0
aI0
aI0
aI0
aI68
aI178
aI17
aI108
aI0
aI0
aI0
aI0
aI177
aI182
aI190
aI205
aI0
aI0
aI0
aI0
aI84
aI239
aI115
aI99
aI0
aI0
aI0
aI0
aI239
aI101
aI110
aI0
aI0
aI0
aI0
aI0
aI225
aI155
aI99
aI47
aI0
aI0
aI0
aI0
aI249
aI16
aI173
aI168
aI0
aI0
aI0
aI0
aI52
aI139
aI209
aI60
aI0
aI0
aI0
aI0
aI68
aI0
aI238
aI87
aI0
aI0
aI0
aI0
aI123
aI40
aI3
aI1
aI0
aI0
aI0
aI0
aI237
aI221
aI240
aI158
aI0
aI0
aI0
aI0
aI0
aI90
aI252
aI23
aI0
aI0
aI0
aI0
aI12
aI83
aI152
aI164
aI0
aI0
aI0
aI0
aI50
aI184
aI222
aI107
aI0
aI0
aI0
aI0
aI143
aI71
aI192
aI16
aI0
aI0
aI0
aI0
aI189
aI58
aI154
aI226
aI0
aI0
aI0
aI0
aI93
aI154
aI137
aI125
aI0
aI0
aI0
aI0
aI115
aI173
aI138
aI232
aI0
aI0
aI0
aI0
aI3
aI131
aI151
aI145
aI0
aI0
aI0
aI0
aI157
aI162
aI170
aI244
aI0
aI0
aI0
aI0
aI219
aI208
aI141
aI227
aI0
aI0
aI0
aI0
aI213
aI0
aI11
aI23
aI0
aI0
aI0
aI0
aI52
aI47
aI61
aI103
aI0
aI0
aI0
aI0
aI159
aI115
aI216
aI182
aI0
aI0
aI0
aI0
aI71
aI211
aI76
aI2
aI0
aI0
aI0
aI0
aI62
aI187
aI88
aI187
aI0
aI0
aI0
aI0
aI138
aI174
aI238
aI183
aI0
aI0
aI0
aI0
aI162
aI87
aI128
aI187
aI0
aI0
aI0
aI0
aI160
aI198
aI206
aI184
aI0
aI0
aI0
aI0
aI116
aI193
aI189
aI74
aI0
aI0
aI0
aI0
aI255
aI125
aI149
aI194
aI0
aI0
aI0
aI0
aI152
aI89
aI112
aI6
aI0
aI0
aI0
aI0
aI145
aI220
aI174
aI128
aI0
aI0
aI0
aI0
aI181
aI29
aI95
aI6
aI0
aI0
aI0
aI0
aI47
aI100
aI241
aI148
aI0
aI0
aI0
aI0
aI26
aI199
aI254
aI89
aI0
aI0
aI0
aI0
aI24
aI174
aI233
aI223
aI0
aI0
aI0
aI0
aI169
aI182
aI71
aI65
aI0
aI0
aI0
aI0
aI100
aI181
aI93
aI11
aI0
aI0
aI0
aI0
aI69
aI104
aI160
aI158
aI0
aI0
aI0
aI0
aI85
aI128
aI170
aI219
aI0
aI0
aI0
aI0
aI96
aI202
aI171
aI76
aI0
aI0
aI0
aI0
aI200
aI235
aI140
aI97
aI0
aI0
aI0
aI0
aI9
aI59
aI136
aI64
aI0
aI0
aI0
aI0
aI177
aI13
aI22
aI152
aI0
aI0
aI0
aI0
aI48
aI167
aI119
aI209
aI0
aI0
aI0
aI0
aI210
aI187
aI239
aI186
aI0
aI0
aI0
aI0
aI170
aI60
aI129
aI27
aI0
aI0
aI0
aI0
aI172
aI95
aI22
aI146
aI0
aI0
aI0
aI0
aI124
aI77
aI35
aI105
aI0
aI0
aI0
aI0
aI107
aI34
aI42
aI192
aI0
aI0
aI0
aI0
aI148
aI44
aI112
aI189
aI0
aI0
aI0
aI0
aI92
aI129
aI228
aI221
aI0
aI0
aI0
aI0
aI30
aI106
aI174
aI29
aI0
aI0
aI0
aI0
aI63
aI120
aI144
aI32
aI0
aI0
aI0
aI0
aI211
aI237
aI141
aI14
aI0
aI0
aI0
aI0
aI216
aI188
aI194
aI130
aI0
aI0
aI0
aI0
aI219
aI238
aI168
aI31
aI0
aI0
aI0
aI0
aI147
aI205
aI231
aI25
aI0
aI0
aI0
aI0
aI106
aI226
aI184
aI154
aI0
aI0
aI0
aI0
aI0
aI0
aI160
aI40
aI55
aI132
aI237
aI63
aI0
aI0
aI64
aI160
aI29
aI250
aI239
aI63
aI28
aI136
aI156
aI36
aI111
aI112
aI14
aI64
aI0
aI0
aI0
aI0
aI0
aI0
aI0
aI0
atRp22
I0
(L5048L
t(L1L
ttRp23
sbsS'train_steps'
p24
I100000
sS'max_grad_norm'
p25
F131.49224248213548
s.