(dp1
S'random_state'
p2
ccopy_reg
_reconstructor
p3
(ctextmorph.edit_model.training_run
RandomState
p4
c__builtin__
object
p5
NtRp6
(dp7
S'np'
p8
(S'MT19937'
p9
cnumpy.core.multiarray
_reconstruct
p10
(cnumpy
ndarray
p11
(I0
tS'b'
tRp12
(I1
(I624
tcnumpy
dtype
p13
(S'u4'
I0
I1
tRp14
(I3
S'<'
NNNI-1
I-1
I0
tbI00
S',\x03\x10\x99\xffe\xf2iZ\x14\x18\xce\xf4\xf2\xba`\x808\xc8\x1c2\x9d\xe2\x98*\x7fX&\x19\x04UE\xeaOM\x11\xf0\xa1\xa2@\xd4\xbd2\xb4-\xd90\xe8Xd\xb8\xea\xf3\x8a\xe3g\x14\x15\xbd *AJ\x13\x1789\x05,\xeaP\xbf\x9a\xfd\x1c\xed\xd0\xb7\x91\xda\xaa\xa3KQ\x11pr\xa6\xd8:ObboK\x92\xb50\xb3\x86\xd4]\'\xe1>\x19\xcc\x94\xea\x10\x9a\x9d\x9b\x12\xc0\x98er\xa7\xe4\xef6\x10HC\xe6J4h\x86\x9c\x9f\xe6\xf0\x84\xbeb\x05R\x8f\xc0\xfb=s\x96r?\x00\xb5\xf7\xbe\x86\x0bx=y\xb6\x8a1\xc0\xae\xfa\x96\xe0@\x05+\x8e\xb1\x1e\x10\xa1\xa0 \x03\x8b9\x8a\xd2i\xb0W\x8a\xae+@a\xf9\xcf\x8f\xc9\xdc\xa5\xbe\xd1\xdf\xb2d\xe7X\x96 \x14\xd1N\x1f\x14<\xcc\x87wk\xdbR\xe3"}\xeb\xbf\xb1\xfd%\xf8\x8d$N\xc3\xf0\xc0\xba\x8c\xae\x1d\xb5lL\xd5N\xf8}\xa4\xc2B\x0b\x16%N\xc0\x92\xd4\x01K,d}X\xa9;\xa5U\x1a\x9bY\x18\xd3\xeeb]n\xb5\x9e\x00 \xcf\xba\x15\x10\xf8B8\xe5pa!\xf4^\xc0\x08\xed9\xfa\xc1\x08\x98xFh%\xf7\xc7!Ad\x9c\x82\x86\x1d\\E#k\xdc\xd4\xde\x96\x10\x81*F|T\x16:\'=W$\xe0\xd2v\x93\x81\xf5M8\x87\xaa.\x958\x94\x93#\xdb\xf9\xf5\x0b\xfc\x03\xeeZ<\x95\x96\x9b\xab\x12\xd8\xf2\xcf\xd4#&T\x81m\x16\xc3\x177^\x16\x88u\xbf\xc8\x80\x91\xd4\xd2r\xfb\xf8\xf4\r\xba,y\xec<\x91\xc8L\xff)0N\xc9?\x89:b\xc0\xf8\xae\x88,\xbcX\t\x02\xf3\x1e=\xcf\x89\x08CS\xa1\x01\xba\x94\x9160\xde\x1d\x03\xddi\xe0j\x17\xc43_\x9e\xbe\xb5Z\xd1\xb3\xf2\x81\x84@$\x04\xe6\xef\xc0\xbf\xa0\xcej\xd7v\xd6\xc8\x1ev\x98I\xac\xc3f\xf46>\x96;\x08\xa9\xdf\x1b\xae)\xa5`p#\xcf6\x9a5r\xc4$\xd5a\xc4\x8c)\x08D\xdaC\xb6\xa0\xe3\x17\x9c\xe9\xe0\xeay\xdeA\xda\xec\xc8\x93\x1b\x15!\x17\xbc\x1aO6I\xee&+^6G\x8c\x995>\x82\x90\xd1~\xe6\x0b\xbb\x14k \x02\xa8\xfe]\x0eKJ\xc0\xcc\xc2\xa8\xd9\xf0oJ\xa1\xc3/R\x91\xc88\xfb\xc6{\xcfpvp\x04\xe1\x8d\x02\x86\x96\xd9\xe1\xa7VC\x16\xe5\xe6Y2\xf3\x0b\x98\xc0-\xe1\xdda\xda\xa3\xab\x81\x86\x12\x18\xd8\xfe\x070\xf5o\x86Y\x7fa\xe0O\xd2\t\x11awS\xac\x04\x83\xb1\x17\xe3\x19r\x10\x03\xe7\xcec\'-\x0ey\x10\xdc\x85O~W5\xf8\x14I\x0c\xa4S\'v\nj\xf0%\rba\xb2\x0b\x13r\xc8i\x8f*,\xdb4\xe7\x11\x826\x98\x8a\x18\xf9\x009M\x99\x963i\x972A?a\xb6\xa9\x82\xde.-Ka5g4y\xea\x85\x1cLa\xf8\xb3(\x17\xf9}\xef`\xff\x99\xe9\x958\x15IK sn\x9c\xf8\xc8+\xfemq;\xd3\x15\xfd\x80\xff\x14\xecj\x95\x13\xc9\xc8c\x08\xbc\x97\xc0\xb2\xd5I\r\xf1\xde<_\xabAp"\r\xf1V\x99\xd5\x8c\xe2_u\xb4\xc4\n:M\xc1i\x16\xf7u\xa1\xa7\x86>\xb0H5"\x84\xa8\xb9\t\xf3\x1aD\xe9#\x00\x05\x93g\xff\x1b\xaf\xa9\x0b7\xe4\xed\x1b\xc1S0\xd9u\xc4x\xad;Y\x1fs\xa6\xf8\xa8\xaa\xfc\x01\xe6\xe7\x80\xc8\x90%\xe6\xd3\xef\xe46\xa2\xf1\xe6\x9aZ\x89\x1a\x9b\xe1\xc0~r\x85\x9e\xda$E\xa5T-\x9be3+i\xd1\xe4\x8f\xc6\xab\x1fj\xb8ud\xe4\x05\x80\xe0,\'\xd6!\x88\xba y*\xfc*\x97\xd9\x88N6\x8dv\xa6m`\xc8n\xe6\xd8\xf4\x99\xe7\xfb\xa2F\x116\xf0\xed.\x10\x93\xe2\xac\x8b\xa0]K_\xf0\x0fqJ]\xba\xc8!\xf3\xbe\xab\xaf\x01\n]\x10\x02$\xe1\x0c\x18\xad\xde=\x16&\xf8\x05JD\x92%E[u\xd9\x86\x91w\xf7\xb1\xeb\xb6\x14\xeb2jWg\xb39\x9e\x9f\xd2j\xbd\x8e\xcc1a4\xce\xa8\xc5\x83\xedQ\xa6jI\xed3A\xcc\xb5x\xb8z\x9a\xa6\xc8\x956\xde\xb9\xe2\x9a\xb4.N\x0e\x9f\xe5c\x92EW\xa3\xfa\xdb,\xc6\x16"\x96\xf3\xa2\x94\xfb\xa5\xb8\xff\x90]\xc8t-\\\xe8\x7f\xcfe\x9a_KP\xbdq\xdf\xd4\xdc\x06\x05IJ"p\x03\xc3e\x9a\xe5\xff\xf2\xf5\xa7\x84\xb5\x8d\n\xf4_\xbb\x19:\xf1\xd8\x84\n\xdd\xca\xc2^S\x17z \xa7,\x15h\x89\xc5]I\x05~i\x0f\x07X\x8a\xcf\x9f!5S9\x9309$^\xb0\x0be\xa3#\xf5p\xc4\xed\xaf\xeb\xe3\x84\xc4\x05Ux>\x03\xb7\x9d\x7f\x834S1\xcf\xdc\xabh#M\xb3\x8dG\x9do-\x10\xd2\x18\x14\'\x92\x16\x9d#\xf7\xd4B\xc8y*\x83\r\xe6\xbe1\xb2\xbd1%sf=|\xc2\xe7n\xeb\x99e6\xcd\x07\xd9\xbf\x89\xfdY\xd3s\x9b\xb4~9\xd4\x1bF\xd5\x03{\xf1x\xaf\x85\xdd\xbf\xa7\x90Od\xf1\x7f\xf7\xa7x\x8d\xdbfd\xe3-\x8a\xdb\xb27N*\xbdD\xfb\xda"\r\xff\xfa\x0ej\xf4h&S8\xd8,O\xc8\xafy\xbb\x19e\xb5\xce\x83B\xe0\xf1\xb1\xa8\xdd\xf6IK\xbe\x90\x9aI\xb8\x97\xde\xd1\x1d\x17\x0c\xa80\xb4@\xe7H\x00d\x01\xd9rN\xa4\x0b7U\xd8\xc9\xc2z\xbd \x00\xb8\xc5"=\x05\x946\xeb\xc8\xbd\x7f(t:!\x05\xc1\xd0\xb2\xbb\xd7h\xf5\xd1\x1cE\x84\x81\x01q\x83\x81\x9d\x0e\xe2?\xc6\xca\xcb\x02\xcc\x87\xa9\x94F^\n\x91?d7\r\xb2\x9c@-(\n\xfe\xb2\'\x9a\xfaj`\xe0\x84,XM?\xf4\xef\xdd%Q\xc49\xa2G\xe4O\xc8-\x93\xf01\x13"\x1b\xf9\xeak#\xfd\xb6\xab.\xa3:<\x17>\x03~\xbe\r\x08\x13-\xcb\x88\xef|0@c\xa6\xe8j\xfc\xf4\xec\x010h\'\x06L\x13\x83\xf6\x02Hd\xd9I:uH\x1dJ,\xcb{\xe1\x1e\xa5\xf5S\xc5\x19\x9f\x15w\xc1\x93\x94\xda\xd1\xdc\xdd\xef\xe8\xeb\ns\xeesmc|\xf0\xec\xa1k\xde}\xda\xfe9\x15\x96\xd5X, \x88\xff\x06ck Jz\x87\xce\xc7\xa9v\xec\x94\xe7\x84\xb472\x92,n\xa5\x990\x96\xcd\x19\x95\x95\x9aR\x14\xa6\x9a\x0f.\x8289q\x86\x90\xa4k\xd7\xe37\xdeh^x\xaeA\xa5\xc5I\xc5\xb0!\x18I:\xbc6\xaf\x91\x03\xcd\xe3\xd5\x00\xc31\x06o\xf2\xb2Y\xf2P+\x16\xb4\xf2\xa8\x14\xeb\xa5!C 7\xd8@\xe1"D\xaeH9]\x16\'kj\xb3\xb4*&@\xb4y\x16C7\x13\x94\x16\xec\\\xce\x12\xdb\x98\xce\xcb\x11\x8a\x8b\xb0c\x1e\x9c\x0e-\'\xa5F\xcf_\xe4\x8e\x10t\x04\xdc0\x05\x05\xb4!\xc8\xf4\x18\x9b)\xc9\xe2X4\xeeA\xe5\x88\xf1\xbc3\xba\xfc\xa6\xbc\xd6g\x8e\x90\xf0C\xdb\x1c\x8eV\xc2\xc6}8*\xf9~\xf9a\xbf`:\xc8\x95kc\xf7\x8b\xb25.\x98B\x9a@ k\xd8A\x03\xa5\x92\x8f\xa5\xdb`\xb0\xc6\x1e\xa5\xb2aO\xe5\x14\xadF\xe9j\x8a\xcfY\x93xrg\xfe\x89"\x0f\xbe\xb0\xfd\x8eX\xe3[\x9f\xd8\xcfCk\xe7\xb1\xb7\xd2\xfa\x02\xd8\nR\xce\x12\xc6\x1b!\x014\xe5\xa5\x0f!\xec\xb6\xb0\xdb)\xaf\xb9\x08c#x\xa5\xe5\xa7`\x9b\xbb\xc4\xaeo\xe2\xe7\x9c\xae\xddc\xed\xbb\xc5\x1c"\x83\x8b\xea\x04\x96v\xd0\x98\x03\r"I\x94CI!\xe6\x07)`\x83\x14\xdb\x94\x8f\xf8\x97\xe2\xa8\x02\'\x9b\xc1\xadE\xa6>\xdc+\xbf\xd5P\xbb\x17\x9bF\xfbE?\x93x\x1cx\x84J\xcfs-\xc7\x1es\x828\x7fn\x8e\xd0XZ\xb7D\x0f\x10r$\x0e\x085L\x9a\xe2\xc3Mu3\x97\x95\x10`\x04\xa6v\xd0\xa1\x0e\x8e\xad\xaf\xed\x89\x94\x19\xe6\xcaO\xff\xfc\x03\x0e?\xf3\xcfe\x17\xad\x93_c\x10q\xcc\x88\x05\xeb\r\xb7\xef\x07>\x0b;%w`\x9c\x8f\x03fw\xda\xbf:SxB\xfdR\xce;aG\x8a"\n\x12\xca\xcdz\x1f.\xb4^\xf41V\x07\xd5F7\xdfw\xc6^\x9c\x0b\x1f,\x1e\x98\x95*\x9c\x16\xa6\x86\x05\x10^B\xbf\'\x7f\x85\x8e]\xbf%j\x0e\xd7F\x06m\x95\x12"\x9b/[\xb6sP\xff\x018\x1a\xb8cF\xd7F\xcf\x92\xd4\x0f\xd4I\xb9D\x8en\xcd\xfe\xe1\xa9\xf0\xc6x\x87\xaak\xb0s\x85\xeem\x95\x8e\x17\xf93\xf8\xdd\xb5b\x8d\x81\xd2d\xbfm\x05\x15\xb9\xc2\xe70\xbeY.\x9b\xd7r3O\xf6\x0e\xd1\x92ne\x9a4\xe4X\x16\x90\xea{@\xc0\x1e\x92\x9bH\x89\xac+\xc6\xb9\xc5\xe2\x92\xa9"\x80D\xff\x1a\x10\xe8w\x18~\xe4&\xd5\x9b\x85\x84\xea\xde\xf9y\x0b@y\x8f\xeb\xfd\xdb\x9a\xfb\xaeC>[\x99\xdd\x8cJ\xf5\xcf\xe8>1.\x0b\x9dg\xa7a\xae\xf0\x98\xbfG\x80\x92\x11\x92\xb4\xa0\x8e&\xbdu\xc9\xcbr\xf0\x8f\xf9\x9bH|\x88\xc5\xfasu\x80B\x91\x0f*\x93\x8d\x19\xb4{_\xdc\xaan\xb0\x8e\xc3\xae\x855\xdc\xa9\x15\xe7\x94zD\xc9\x97\xe5\xd7\xc1b$\x83\xd7\xe6\x0f\xf5\x06\xf1\x00E\xf1 <\xf69\xbbw\xfd\xf5\xa6*\xa9\xf2\xa2vL\x8b\xc0\x98\x1c\n\xb5-E\xaf\x19\xb0\x9fx\xc5\xa5\x1fH?TL\x12\x01\x1d\xbcdX#5\xbaF\x85\xcc\x08\xbckc\xb4\xb6\x81N\x98\xe3\x16\xf5^\x81\xcc\xb2w\xc3\xab\xadz\x80\r1\x12\xa6.\xd6Z\xf1\xaa2X\xd7\x7f\n\xf6\x07\xd5\x0b\x98,\xba\xfb6l\x84\x16\xd1\xa6\xdf\xc2\xabD\xa1\xc2\xdc\tE\xa1WT\x976\xdd\x94\x178#s/&T\x06\x89\xdcw6\xa7NU\xce\x0b\xfaB\x08\xa3\xa3\xf1dl\xc6\xa4o-\xc9g\xec\xcb\xe9B\xc6I\x8d\x10)@\xd0r%\xc9y\xb1\x88\xb3\x9aH\xe5\xbd\x80\x19z\xf7\x89\x94~\x93\x92\x08\xc1E\xd4\t\xccCfT/\xa2\xed\x14\xdd}\xc6\xc4\xcb\x16\xe8\x83]\xf7\xc4\x18\xb2\x846\xd8\xcd\xe3\xf1c\x88\x95o\xf7x\x87\xf37kH\xbd\xef3A\xcf\x07.\xbbm\xf7\r\x14l\xd1_\xf2$\x9eL\xadb\x01\x10ub\xd0\'\xcb\x16\x15\xc0\xfe\xd6\x12\xea]\xc3-\xa46m\xb6}\x8e\x16\x94^\x95R\xb7B\xa8;'
tbI4
I1
F2.5935918993132114
tp15
sS'py'
p16
(I3
(L1531436405L
L828769413L
L3305722092L
L92042683L
L2806871402L
L3959115726L
L3576136715L
L2533936005L
L3267295871L
L1684749539L
L956008827L
L252902852L
L1051915759L
L281184369L
L4174743594L
L3396473752L
L2236664523L
L3137829490L
L4075058289L
L1102882699L
L1600239558L
L889346144L
L1661675473L
L2867258990L
L1472220256L
L4022106854L
L3400868934L
L3401906248L
L180044733L
L2128010573L
L2909750400L
L3372386527L
L3458965531L
L1474006741L
L1166398185L
L548608528L
L448141634L
L298380491L
L2293383218L
L842450964L
L1531962527L
L3876391901L
L1108221761L
L1227340677L
L967840136L
L3072202464L
L4089882644L
L3229005118L
L59081342L
L4292578986L
L2981607997L
L3094241054L
L4087597978L
L603886976L
L1573919951L
L3414766348L
L1557840348L
L1197339790L
L589744411L
L2462407352L
L157790257L
L2403871420L
L3818713327L
L478035598L
L4287317721L
L4073662076L
L3522987488L
L1671408443L
L649966294L
L587976787L
L1878534967L
L1200739747L
L2456032633L
L2474205678L
L614365903L
L723622297L
L1165597788L
L1971135103L
L3202875226L
L2230310811L
L3728415440L
L1257420115L
L1960637261L
L127009120L
L3485110782L
L934184063L
L1098200163L
L2132386803L
L164262887L
L1642206140L
L2267696549L
L4063865952L
L2253497418L
L3883608397L
L2126606700L
L732615754L
L1362324046L
L3918322657L
L4003823681L
L1976234150L
L1711211515L
L1942484474L
L2558036671L
L109782333L
L1698896236L
L2485015892L
L2864675309L
L4081311304L
L1961471465L
L436272523L
L309338162L
L2471973584L
L3095653644L
L2241883393L
L845388405L
L3830462690L
L2427961841L
L3252889860L
L2028857491L
L2923207557L
L3412907584L
L656297498L
L1261962370L
L3206734406L
L3914156305L
L3604267055L
L3773514943L
L3254596817L
L3910995528L
L4057607270L
L3854235514L
L3946987208L
L1053033152L
L2110422955L
L1238771927L
L521308953L
L589388095L
L812095149L
L1985969284L
L2033668546L
L2111960259L
L2053344088L
L4274939214L
L3660124909L
L1140496156L
L541574262L
L844991061L
L780457843L
L2438574756L
L3481499530L
L1961534437L
L286008431L
L1649478338L
L619519552L
L2032318178L
L3449866940L
L2095980323L
L2546854303L
L2097590066L
L3280874907L
L430397280L
L2990914418L
L156826282L
L1850670210L
L2804247172L
L198696042L
L1843983845L
L1602033237L
L2372564843L
L924556534L
L3240532453L
L1230440476L
L908616940L
L2078573592L
L3066905208L
L1446883110L
L959789674L
L1832786036L
L310054974L
L4285183250L
L3610847347L
L1717590519L
L2784898724L
L1744340427L
L2667505911L
L3235735978L
L3352437941L
L396266857L
L2083468462L
L1058988181L
L3394233584L
L3505377627L
L2471932760L
L1574753485L
L3109685730L
L1787144256L
L727753000L
L1400681453L
L280464658L
L3730639190L
L1920947465L
L2889613014L
L4126320134L
L1229847417L
L3803548931L
L919158338L
L2240923576L
L3947611221L
L1347169115L
L2759253748L
L2372308684L
L390225114L
L1118258878L
L1445010717L
L3377965652L
L3397011637L
L3550398815L
L27163783L
L2830191912L
L2757725477L
L688358209L
L3229084619L
L1162032461L
L2984586797L
L2660154154L
L2823286705L
L101046543L
L3868144476L
L4221402632L
L1399938672L
L3309946870L
L425051482L
L335070643L
L2374306008L
L2744714582L
L1578004946L
L238543619L
L898000140L
L1407872965L
L3657529091L
L2639049630L
L2480648594L
L1211772429L
L1129766785L
L3813909873L
L2992922167L
L357793461L
L323608580L
L280302941L
L2085489537L
L2451573369L
L2966836132L
L883638910L
L1484603322L
L1643731738L
L2584003282L
L27390570L
L1412547838L
L3507574452L
L3638357119L
L1084789903L
L2548294783L
L1532632011L
L455015919L
L300240782L
L3009384649L
L685940509L
L1526966610L
L4050951844L
L1867788184L
L2252167922L
L970561836L
L3821633046L
L1669629552L
L404099637L
L1233526223L
L2845185416L
L1073680830L
L140924884L
L1616259878L
L3474049928L
L1153652689L
L1093280266L
L464947934L
L1761285252L
L1314734192L
L2116865134L
L3226558814L
L4196893756L
L2981689495L
L4160066755L
L3070687145L
L926623223L
L2561070872L
L1097039690L
L2390542590L
L2367101924L
L1264319575L
L749838737L
L2248713298L
L710523453L
L1999872463L
L819418958L
L203709286L
L2708622518L
L1234192521L
L3651400098L
L2472098372L
L2736548687L
L157503571L
L3244804508L
L2241663354L
L4191753651L
L1620909773L
L68714306L
L2223915165L
L961688289L
L1864368200L
L2460707548L
L1396615889L
L3238927052L
L1942690805L
L1003798345L
L2575613696L
L3425186463L
L256824115L
L3356192290L
L1063043285L
L2371633619L
L1673103723L
L4183190808L
L332124162L
L1800139121L
L4282485500L
L750923268L
L2573896969L
L3260434364L
L549712443L
L510900445L
L2179424436L
L2530645669L
L4127626619L
L1463521543L
L1939254168L
L25152987L
L2572522135L
L1083516132L
L2587750002L
L2541564165L
L3108823569L
L750949547L
L3179712046L
L2354237099L
L289353289L
L4259183677L
L1774937904L
L1325966117L
L2955011430L
L1440156512L
L77254310L
L3096728376L
L1938734270L
L2934685181L
L3453440990L
L4243422516L
L3311518901L
L4069934231L
L843201435L
L385427736L
L1906819143L
L1452215720L
L4041047541L
L3176261786L
L1686166168L
L966287578L
L113078787L
L209469195L
L1017014748L
L3110075738L
L452377160L
L3349512678L
L2586916162L
L2859911395L
L2899860746L
L4203369678L
L2142847291L
L2386708790L
L28138395L
L404385584L
L250288355L
L116596149L
L335246246L
L3666365792L
L279744417L
L1337147223L
L521151731L
L3649616406L
L2744941707L
L2904598581L
L2211530299L
L2903966617L
L323149086L
L779395651L
L4293682829L
L788371164L
L2640793337L
L377170258L
L3317066973L
L1805643302L
L1416447174L
L3161365714L
L2866494333L
L780560939L
L296203738L
L1463443127L
L1616742892L
L2718575169L
L2396487069L
L2307072090L
L310592529L
L2836154278L
L717621047L
L1795959944L
L144431719L
L3257327539L
L3477721929L
L3372687347L
L2924535322L
L505165587L
L2433611156L
L1669456773L
L2702092921L
L768075391L
L806737154L
L104125950L
L1522379624L
L358620059L
L1188354529L
L2367757353L
L2626186825L
L2615021324L
L3556024869L
L4291791941L
L2775624715L
L856936167L
L2751238379L
L2209038626L
L3910282806L
L3657909692L
L3741277154L
L1277002335L
L1348448685L
L3256137698L
L3091128513L
L3078557398L
L663434117L
L2070289896L
L1685812862L
L2410288429L
L1761203726L
L2249429234L
L893721371L
L1802848055L
L828078105L
L2826159486L
L2065712966L
L2591646407L
L2606851355L
L4258265486L
L351689271L
L3814595900L
L3055252299L
L1229374958L
L1767539588L
L3665419081L
L1963799528L
L3369212510L
L3594379184L
L1408993000L
L3328497448L
L3381359033L
L1391315813L
L3205614774L
L382377304L
L2804106328L
L3554834400L
L1285509015L
L3152222812L
L3664031750L
L3179518574L
L859872692L
L1546871752L
L4016827447L
L3651311744L
L2024992203L
L3695123413L
L2256663769L
L1459310018L
L2024977214L
L4150991141L
L1574201138L
L1910759606L
L1993136207L
L3835777996L
L899376041L
L3807817926L
L1677198228L
L2859629385L
L2590192180L
L175853798L
L3467350704L
L3317610392L
L2175504836L
L1508679148L
L2343301801L
L3757367895L
L544810803L
L115258260L
L1689177651L
L2936306624L
L2891316143L
L4076939360L
L55181354L
L3549642303L
L2636196425L
L41002221L
L4225424054L
L876541311L
L2359604437L
L763652914L
L1059640363L
L654216327L
L3839978740L
L2733676990L
L3313644842L
L3884693037L
L595094415L
L1133829138L
L3662605747L
L1750168520L
L3980666998L
L410082309L
L3248619098L
L832467027L
L3545350909L
L3098729561L
L2658825722L
L1231431452L
L2257890799L
L1545746227L
L4229174185L
L3852389792L
L4087442159L
L3982748142L
L4245849487L
L715072247L
L773361015L
L1398032055L
L2632694874L
L834357735L
L4013211028L
L638846877L
L3305878352L
L3844634248L
L963627812L
L1960049384L
L1836406932L
L1544784214L
L684798799L
L2453517051L
L2959839474L
L682642168L
L981617779L
L2292138791L
L1822633841L
L2454460081L
L1317895902L
L1268903151L
L1746442449L
L2284439519L
L1860510520L
L83299469L
L3919562076L
L1369607822L
L812941957L
L2716070485L
L1971713985L
L2674053527L
L3024866181L
L2655147720L
L4107072211L
L3465187537L
L1519563696L
L1556019577L
L3156313183L
L2680101923L
L3142051707L
L2285574748L
L2143143783L
L3175018597L
L2916207324L
L972758206L
L861413032L
L2188281266L
L1762773139L
L1284791986L
L3151448054L
L2320281379L
L3603838918L
L2100057668L
L857813085L
L1822247636L
L1414037816L
L723294109L
L472545972L
L2854582501L
L2763307969L
L2604623605L
L2539858141L
L440114976L
L1781583328L
L950909145L
L93167054L
L1831068787L
L338L
tNtp17
sS'torch'
p18
ctorch._utils
_rebuild_tensor
p19
(ctorch
ByteStorage
p20
((lp21
I0
aI0
aI0
aI0
aI0
aI0
aI0
aI0
aI217
aI0
aI0
aI0
aI1
aI0
aI0
aI0
aI152
aI1
aI0
aI0
aI0
aI0
aI0
aI0
aI24
aI59
aI212
aI139
aI0
aI0
aI0
aI0
aI180
aI15
aI109
aI221
aI0
aI0
aI0
aI0
aI177
aI239
aI73
aI84
aI0
aI0
aI0
aI0
aI31
aI103
aI76
aI216
aI0
aI0
aI0
aI0
aI106
aI169
aI15
aI183
aI0
aI0
aI0
aI0
aI245
aI12
aI133
aI196
aI0
aI0
aI0
aI0
aI162
aI207
aI205
aI152
aI0
aI0
aI0
aI0
aI238
aI234
aI138
aI42
aI0
aI0
aI0
aI0
aI123
aI252
aI179
aI23
aI0
aI0
aI0
aI0
aI58
aI53
aI166
aI142
aI0
aI0
aI0
aI0
aI81
aI2
aI234
aI7
aI0
aI0
aI0
aI0
aI98
aI116
aI172
aI243
aI0
aI0
aI0
aI0
aI234
aI204
aI64
aI197
aI0
aI0
aI0
aI0
aI129
aI110
aI239
aI126
aI0
aI0
aI0
aI0
aI178
aI243
aI106
aI112
aI0
aI0
aI0
aI0
aI71
aI78
aI171
aI206
aI0
aI0
aI0
aI0
aI210
aI218
aI56
aI68
aI0
aI0
aI0
aI0
aI115
aI156
aI96
aI191
aI0
aI0
aI0
aI0
aI47
aI78
aI114
aI34
aI0
aI0
aI0
aI0
aI34
aI71
aI234
aI221
aI0
aI0
aI0
aI0
aI175
aI178
aI175
aI212
aI0
aI0
aI0
aI0
aI101
aI235
aI7
aI187
aI0
aI0
aI0
aI0
aI229
aI149
aI136
aI21
aI0
aI0
aI0
aI0
aI82
aI123
aI146
aI124
aI0
aI0
aI0
aI0
aI83
aI232
aI96
aI182
aI0
aI0
aI0
aI0
aI11
aI118
aI230
aI131
aI0
aI0
aI0
aI0
aI247
aI125
aI49
aI163
aI0
aI0
aI0
aI0
aI104
aI138
aI42
aI13
aI0
aI0
aI0
aI0
aI197
aI93
aI95
aI34
aI0
aI0
aI0
aI0
aI117
aI40
aI224
aI102
aI0
aI0
aI0
aI0
aI63
aI24
aI169
aI253
aI0
aI0
aI0
aI0
aI3
aI132
aI234
aI141
aI0
aI0
aI0
aI0
aI111
aI244
aI190
aI181
aI0
aI0
aI0
aI0
aI40
aI251
aI123
aI214
aI0
aI0
aI0
aI0
aI31
aI255
aI157
aI191
aI0
aI0
aI0
aI0
aI220
aI145
aI234
aI76
aI0
aI0
aI0
aI0
aI158
aI169
aI138
aI244
aI0
aI0
aI0
aI0
aI167
aI116
aI193
aI219
aI0
aI0
aI0
aI0
aI81
aI164
aI180
aI21
aI0
aI0
aI0
aI0
aI201
aI77
aI132
aI71
aI0
aI0
aI0
aI0
aI9
aI114
aI57
aI179
aI0
aI0
aI0
aI0
aI196
aI227
aI216
aI47
aI0
aI0
aI0
aI0
aI116
aI134
aI143
aI7
aI0
aI0
aI0
aI0
aI2
aI254
aI145
aI35
aI0
aI0
aI0
aI0
aI247
aI215
aI209
aI53
aI0
aI0
aI0
aI0
aI37
aI213
aI248
aI205
aI0
aI0
aI0
aI0
aI191
aI3
aI0
aI21
aI0
aI0
aI0
aI0
aI9
aI85
aI109
aI162
aI0
aI0
aI0
aI0
aI67
aI75
aI192
aI193
aI0
aI0
aI0
aI0
aI20
aI229
aI177
aI109
aI0
aI0
aI0
aI0
aI170
aI119
aI158
aI192
aI0
aI0
aI0
aI0
aI238
aI34
aI136
aI222
aI0
aI0
aI0
aI0
aI69
aI147
aI72
aI141
aI0
aI0
aI0
aI0
aI90
aI50
aI76
aI54
aI0
aI0
aI0
aI0
aI216
aI211
aI65
aI28
aI0
aI0
aI0
aI0
aI108
aI75
aI88
aI218
aI0
aI0
aI0
aI0
aI17
aI158
aI43
aI66
aI0
aI0
aI0
aI0
aI72
aI97
aI27
aI167
aI0
aI0
aI0
aI0
aI103
aI206
aI252
aI55
aI0
aI0
aI0
aI0
aI110
aI9
aI164
aI187
aI0
aI0
aI0
aI0
aI248
aI95
aI127
aI2
aI0
aI0
aI0
aI0
aI217
aI178
aI179
aI157
aI0
aI0
aI0
aI0
aI85
aI195
aI225
aI150
aI0
aI0
aI0
aI0
aI204
aI25
aI70
aI112
aI0
aI0
aI0
aI0
aI5
aI17
aI97
aI46
aI0
aI0
aI0
aI0
aI230
aI78
aI77
aI161
aI0
aI0
aI0
aI0
aI220
aI7
aI248
aI74
aI0
aI0
aI0
aI0
aI113
aI212
aI59
aI140
aI0
aI0
aI0
aI0
aI221
aI224
aI126
aI147
aI0
aI0
aI0
aI0
aI15
aI110
aI109
aI127
aI0
aI0
aI0
aI0
aI132
aI95
aI246
aI247
aI0
aI0
aI0
aI0
aI135
aI25
aI158
aI140
aI0
aI0
aI0
aI0
aI41
aI127
aI75
aI135
aI0
aI0
aI0
aI0
aI245
aI117
aI103
aI7
aI0
aI0
aI0
aI0
aI9
aI13
aI47
aI54
aI0
aI0
aI0
aI0
aI37
aI141
aI76
aI19
aI0
aI0
aI0
aI0
aI116
aI3
aI139
aI146
aI0
aI0
aI0
aI0
aI196
aI226
aI132
aI227
aI0
aI0
aI0
aI0
aI216
aI42
aI17
aI30
aI0
aI0
aI0
aI0
aI20
aI236
aI68
aI238
aI0
aI0
aI0
aI0
aI2
aI132
aI116
aI201
aI0
aI0
aI0
aI0
aI218
aI125
aI213
aI137
aI0
aI0
aI0
aI0
aI14
aI54
aI60
aI78
aI0
aI0
aI0
aI0
aI90
aI59
aI251
aI5
aI0
aI0
aI0
aI0
aI134
aI20
aI86
aI167
aI0
aI0
aI0
aI0
aI214
aI78
aI209
aI43
aI0
aI0
aI0
aI0
aI42
aI17
aI224
aI172
aI0
aI0
aI0
aI0
aI109
aI200
aI82
aI21
aI0
aI0
aI0
aI0
aI23
aI230
aI104
aI160
aI0
aI0
aI0
aI0
aI136
aI235
aI53
aI248
aI0
aI0
aI0
aI0
aI114
aI40
aI176
aI40
aI0
aI0
aI0
aI0
aI89
aI217
aI196
aI145
aI0
aI0
aI0
aI0
aI85
aI59
aI189
aI187
aI0
aI0
aI0
aI0
aI192
aI15
aI127
aI20
aI0
aI0
aI0
aI0
aI124
aI91
aI40
aI114
aI0
aI0
aI0
aI0
aI52
aI230
aI241
aI237
aI0
aI0
aI0
aI0
aI194
aI92
aI170
aI123
aI0
aI0
aI0
aI0
aI180
aI87
aI112
aI115
aI0
aI0
aI0
aI0
aI187
aI194
aI235
aI127
aI0
aI0
aI0
aI0
aI180
aI138
aI248
aI124
aI0
aI0
aI0
aI0
aI194
aI223
aI107
aI47
aI0
aI0
aI0
aI0
aI126
aI224
aI99
aI240
aI0
aI0
aI0
aI0
aI111
aI170
aI37
aI142
aI0
aI0
aI0
aI0
aI6
aI206
aI56
aI247
aI0
aI0
aI0
aI0
aI223
aI30
aI95
aI94
aI0
aI0
aI0
aI0
aI181
aI198
aI61
aI96
aI0
aI0
aI0
aI0
aI169
aI143
aI204
aI123
aI0
aI0
aI0
aI0
aI149
aI16
aI220
aI126
aI0
aI0
aI0
aI0
aI209
aI42
aI108
aI5
aI0
aI0
aI0
aI0
aI214
aI163
aI47
aI93
aI0
aI0
aI0
aI0
aI47
aI113
aI40
aI195
aI0
aI0
aI0
aI0
aI116
aI33
aI46
aI0
aI0
aI0
aI0
aI0
aI93
aI126
aI242
aI65
aI0
aI0
aI0
aI0
aI239
aI134
aI128
aI247
aI0
aI0
aI0
aI0
aI21
aI92
aI138
aI131
aI0
aI0
aI0
aI0
aI164
aI39
aI170
aI115
aI0
aI0
aI0
aI0
aI160
aI94
aI166
aI244
aI0
aI0
aI0
aI0
aI167
aI37
aI137
aI218
aI0
aI0
aI0
aI0
aI222
aI222
aI26
aI38
aI0
aI0
aI0
aI0
aI57
aI86
aI101
aI164
aI0
aI0
aI0
aI0
aI68
aI5
aI239
aI126
aI0
aI0
aI0
aI0
aI200
aI229
aI55
aI127
aI0
aI0
aI0
aI0
aI122
aI130
aI53
aI169
aI0
aI0
aI0
aI0
aI212
aI120
aI214
aI180
aI0
aI0
aI0
aI0
aI187
aI248
aI86
aI177
aI0
aI0
aI0
aI0
aI114
aI174
aI161
aI59
aI0
aI0
aI0
aI0
aI134
aI196
aI24
aI211
aI0
aI0
aI0
aI0
aI138
aI36
aI134
aI99
aI0
aI0
aI0
aI0
aI72
aI212
aI166
aI107
aI0
aI0
aI0
aI0
aI45
aI183
aI181
aI240
aI0
aI0
aI0
aI0
aI152
aI82
aI48
aI54
aI0
aI0
aI0
aI0
aI203
aI2
aI76
aI63
aI0
aI0
aI0
aI0
aI145
aI83
aI64
aI50
aI0
aI0
aI0
aI0
aI61
aI47
aI226
aI221
aI0
aI0
aI0
aI0
aI12
aI64
aI130
aI130
aI0
aI0
aI0
aI0
aI83
aI43
aI161
aI155
aI0
aI0
aI0
aI0
aI85
aI201
aI75
aI205
aI0
aI0
aI0
aI0
aI20
aI141
aI213
aI100
aI0
aI0
aI0
aI0
aI16
aI48
aI5
aI108
aI0
aI0
aI0
aI0
aI208
aI9
aI119
aI146
aI0
aI0
aI0
aI0
aI224
aI19
aI224
aI197
aI0
aI0
aI0
aI0
aI111
aI242
aI80
aI12
aI0
aI0
aI0
aI0
aI79
aI245
aI242
aI214
aI0
aI0
aI0
aI0
aI136
aI247
aI108
aI163
aI0
aI0
aI0
aI0
aI12
aI141
aI206
aI129
aI0
aI0
aI0
aI0
aI145
aI152
aI94
aI62
aI0
aI0
aI0
aI0
aI243
aI56
aI131
aI82
aI0
aI0
aI0
aI0
aI253
aI59
aI66
aI46
aI0
aI0
aI0
aI0
aI191
aI195
aI174
aI84
aI0
aI0
aI0
aI0
aI66
aI207
aI156
aI159
aI0
aI0
aI0
aI0
aI80
aI32
aI181
aI8
aI0
aI0
aI0
aI0
aI48
aI4
aI32
aI45
aI0
aI0
aI0
aI0
aI145
aI7
aI245
aI181
aI0
aI0
aI0
aI0
aI53
aI152
aI203
aI224
aI0
aI0
aI0
aI0
aI125
aI20
aI228
aI39
aI0
aI0
aI0
aI0
aI30
aI201
aI251
aI144
aI0
aI0
aI0
aI0
aI179
aI133
aI190
aI101
aI0
aI0
aI0
aI0
aI143
aI113
aI134
aI9
aI0
aI0
aI0
aI0
aI40
aI68
aI232
aI177
aI0
aI0
aI0
aI0
aI173
aI124
aI87
aI200
aI0
aI0
aI0
aI0
aI105
aI157
aI185
aI231
aI0
aI0
aI0
aI0
aI32
aI143
aI105
aI139
aI0
aI0
aI0
aI0
aI186
aI80
aI97
aI92
aI0
aI0
aI0
aI0
aI190
aI7
aI60
aI155
aI0
aI0
aI0
aI0
aI103
aI28
aI118
aI141
aI0
aI0
aI0
aI0
aI105
aI157
aI250
aI245
aI0
aI0
aI0
aI0
aI2
aI35
aI129
aI50
aI0
aI0
aI0
aI0
aI11
aI236
aI244
aI224
aI0
aI0
aI0
aI0
aI73
aI208
aI39
aI70
aI0
aI0
aI0
aI0
aI107
aI60
aI250
aI14
aI0
aI0
aI0
aI0
aI91
aI117
aI160
aI106
aI0
aI0
aI0
aI0
aI95
aI184
aI187
aI22
aI0
aI0
aI0
aI0
aI207
aI236
aI188
aI58
aI0
aI0
aI0
aI0
aI25
aI146
aI212
aI40
aI0
aI0
aI0
aI0
aI119
aI136
aI64
aI147
aI0
aI0
aI0
aI0
aI108
aI173
aI9
aI35
aI0
aI0
aI0
aI0
aI199
aI118
aI13
aI167
aI0
aI0
aI0
aI0
aI227
aI214
aI99
aI150
aI0
aI0
aI0
aI0
aI41
aI160
aI95
aI124
aI0
aI0
aI0
aI0
aI0
aI77
aI26
aI114
aI0
aI0
aI0
aI0
aI63
aI69
aI66
aI74
aI0
aI0
aI0
aI0
aI205
aI236
aI122
aI169
aI0
aI0
aI0
aI0
aI116
aI252
aI67
aI250
aI0
aI0
aI0
aI0
aI27
aI70
aI124
aI209
aI0
aI0
aI0
aI0
aI2
aI131
aI208
aI211
aI0
aI0
aI0
aI0
aI86
aI249
aI142
aI5
aI0
aI0
aI0
aI0
aI158
aI145
aI127
aI223
aI0
aI0
aI0
aI0
aI164
aI125
aI9
aI148
aI0
aI0
aI0
aI0
aI217
aI13
aI76
aI108
aI0
aI0
aI0
aI0
aI27
aI142
aI229
aI100
aI0
aI0
aI0
aI0
aI202
aI252
aI147
aI34
aI0
aI0
aI0
aI0
aI158
aI39
aI195
aI241
aI0
aI0
aI0
aI0
aI138
aI124
aI204
aI60
aI0
aI0
aI0
aI0
aI169
aI117
aI195
aI12
aI0
aI0
aI0
aI0
aI48
aI110
aI144
aI49
aI0
aI0
aI0
aI0
aI130
aI141
aI8
aI182
aI0
aI0
aI0
aI0
aI140
aI218
aI67
aI217
aI0
aI0
aI0
aI0
aI104
aI153
aI224
aI94
aI0
aI0
aI0
aI0
aI161
aI186
aI152
aI128
aI0
aI0
aI0
aI0
aI232
aI222
aI198
aI226
aI0
aI0
aI0
aI0
aI96
aI162
aI196
aI43
aI0
aI0
aI0
aI0
aI49
aI187
aI249
aI125
aI0
aI0
aI0
aI0
aI2
aI164
aI114
aI224
aI0
aI0
aI0
aI0
aI78
aI156
aI231
aI222
aI0
aI0
aI0
aI0
aI16
aI168
aI247
aI1
aI0
aI0
aI0
aI0
aI131
aI134
aI80
aI78
aI0
aI0
aI0
aI0
aI237
aI80
aI121
aI1
aI0
aI0
aI0
aI0
aI61
aI221
aI67
aI246
aI0
aI0
aI0
aI0
aI6
aI112
aI156
aI253
aI0
aI0
aI0
aI0
aI86
aI19
aI159
aI120
aI0
aI0
aI0
aI0
aI12
aI107
aI177
aI216
aI0
aI0
aI0
aI0
aI180
aI55
aI40
aI186
aI0
aI0
aI0
aI0
aI99
aI187
aI132
aI47
aI0
aI0
aI0
aI0
aI151
aI210
aI71
aI210
aI0
aI0
aI0
aI0
aI133
aI157
aI186
aI53
aI0
aI0
aI0
aI0
aI237
aI238
aI220
aI163
aI0
aI0
aI0
aI0
aI120
aI131
aI6
aI225
aI0
aI0
aI0
aI0
aI62
aI3
aI64
aI68
aI0
aI0
aI0
aI0
aI75
aI181
aI3
aI194
aI0
aI0
aI0
aI0
aI59
aI53
aI205
aI110
aI0
aI0
aI0
aI0
aI38
aI117
aI44
aI124
aI0
aI0
aI0
aI0
aI70
aI168
aI40
aI86
aI0
aI0
aI0
aI0
aI20
aI187
aI253
aI96
aI0
aI0
aI0
aI0
aI209
aI254
aI252
aI38
aI0
aI0
aI0
aI0
aI236
aI209
aI46
aI100
aI0
aI0
aI0
aI0
aI94
aI65
aI81
aI84
aI0
aI0
aI0
aI0
aI170
aI52
aI74
aI84
aI0
aI0
aI0
aI0
aI237
aI164
aI42
aI72
aI0
aI0
aI0
aI0
aI32
aI215
aI118
aI189
aI0
aI0
aI0
aI0
aI119
aI98
aI254
aI32
aI0
aI0
aI0
aI0
aI98
aI49
aI133
aI89
aI0
aI0
aI0
aI0
aI253
aI201
aI162
aI105
aI0
aI0
aI0
aI0
aI244
aI116
aI224
aI191
aI0
aI0
aI0
aI0
aI8
aI95
aI41
aI77
aI0
aI0
aI0
aI0
aI99
aI6
aI196
aI94
aI0
aI0
aI0
aI0
aI118
aI108
aI46
aI203
aI0
aI0
aI0
aI0
aI194
aI78
aI158
aI241
aI0
aI0
aI0
aI0
aI255
aI89
aI212
aI122
aI0
aI0
aI0
aI0
aI197
aI217
aI245
aI119
aI0
aI0
aI0
aI0
aI14
aI235
aI6
aI78
aI0
aI0
aI0
aI0
aI204
aI123
aI77
aI185
aI0
aI0
aI0
aI0
aI248
aI153
aI133
aI193
aI0
aI0
aI0
aI0
aI223
aI52
aI53
aI59
aI0
aI0
aI0
aI0
aI103
aI78
aI135
aI147
aI0
aI0
aI0
aI0
aI122
aI93
aI163
aI185
aI0
aI0
aI0
aI0
aI159
aI166
aI99
aI182
aI0
aI0
aI0
aI0
aI104
aI251
aI45
aI196
aI0
aI0
aI0
aI0
aI4
aI161
aI19
aI31
aI0
aI0
aI0
aI0
aI155
aI119
aI90
aI83
aI0
aI0
aI0
aI0
aI164
aI170
aI247
aI75
aI0
aI0
aI0
aI0
aI174
aI228
aI240
aI118
aI0
aI0
aI0
aI0
aI236
aI249
aI53
aI228
aI0
aI0
aI0
aI0
aI16
aI6
aI50
aI55
aI0
aI0
aI0
aI0
aI91
aI126
aI214
aI75
aI0
aI0
aI0
aI0
aI155
aI74
aI82
aI247
aI0
aI0
aI0
aI0
aI254
aI148
aI245
aI74
aI0
aI0
aI0
aI0
aI181
aI150
aI144
aI157
aI0
aI0
aI0
aI0
aI13
aI210
aI52
aI99
aI0
aI0
aI0
aI0
aI100
aI49
aI149
aI236
aI0
aI0
aI0
aI0
aI139
aI24
aI230
aI80
aI0
aI0
aI0
aI0
aI77
aI19
aI54
aI31
aI0
aI0
aI0
aI0
aI38
aI115
aI47
aI38
aI0
aI0
aI0
aI0
aI160
aI184
aI48
aI255
aI0
aI0
aI0
aI0
aI107
aI179
aI195
aI77
aI0
aI0
aI0
aI0
aI172
aI92
aI21
aI252
aI0
aI0
aI0
aI0
aI78
aI151
aI115
aI60
aI0
aI0
aI0
aI0
aI165
aI208
aI4
aI217
aI0
aI0
aI0
aI0
aI29
aI11
aI218
aI165
aI0
aI0
aI0
aI0
aI31
aI151
aI44
aI93
aI0
aI0
aI0
aI0
aI30
aI23
aI135
aI229
aI0
aI0
aI0
aI0
aI91
aI78
aI122
aI132
aI0
aI0
aI0
aI0
aI7
aI195
aI139
aI72
aI0
aI0
aI0
aI0
aI13
aI75
aI75
aI107
aI0
aI0
aI0
aI0
aI56
aI173
aI136
aI119
aI0
aI0
aI0
aI0
aI73
aI176
aI44
aI210
aI0
aI0
aI0
aI0
aI139
aI86
aI108
aI225
aI0
aI0
aI0
aI0
aI200
aI225
aI219
aI66
aI0
aI0
aI0
aI0
aI237
aI79
aI124
aI245
aI0
aI0
aI0
aI0
aI89
aI224
aI64
aI73
aI0
aI0
aI0
aI0
aI190
aI188
aI163
aI24
aI0
aI0
aI0
aI0
aI245
aI79
aI108
aI202
aI0
aI0
aI0
aI0
aI64
aI1
aI173
aI30
aI0
aI0
aI0
aI0
aI133
aI92
aI126
aI113
aI0
aI0
aI0
aI0
aI120
aI159
aI228
aI232
aI0
aI0
aI0
aI0
aI165
aI232
aI189
aI196
aI0
aI0
aI0
aI0
aI133
aI140
aI66
aI84
aI0
aI0
aI0
aI0
aI12
aI81
aI57
aI41
aI0
aI0
aI0
aI0
aI123
aI96
aI234
aI18
aI0
aI0
aI0
aI0
aI255
aI67
aI172
aI7
aI0
aI0
aI0
aI0
aI2
aI225
aI14
aI137
aI0
aI0
aI0
aI0
aI159
aI37
aI52
aI146
aI0
aI0
aI0
aI0
aI154
aI154
aI22
aI7
aI0
aI0
aI0
aI0
aI251
aI55
aI61
aI170
aI0
aI0
aI0
aI0
aI90
aI16
aI251
aI29
aI0
aI0
aI0
aI0
aI160
aI236
aI164
aI203
aI0
aI0
aI0
aI0
aI43
aI147
aI93
aI131
aI0
aI0
aI0
aI0
aI112
aI111
aI204
aI21
aI0
aI0
aI0
aI0
aI227
aI67
aI66
aI146
aI0
aI0
aI0
aI0
aI246
aI45
aI168
aI192
aI0
aI0
aI0
aI0
aI122
aI125
aI79
aI77
aI0
aI0
aI0
aI0
aI201
aI207
aI71
aI209
aI0
aI0
aI0
aI0
aI122
aI144
aI204
aI166
aI0
aI0
aI0
aI0
aI76
aI62
aI175
aI210
aI0
aI0
aI0
aI0
aI110
aI197
aI86
aI43
aI0
aI0
aI0
aI0
aI248
aI17
aI127
aI187
aI0
aI0
aI0
aI0
aI110
aI121
aI72
aI18
aI0
aI0
aI0
aI0
aI13
aI176
aI37
aI173
aI0
aI0
aI0
aI0
aI13
aI84
aI124
aI61
aI0
aI0
aI0
aI0
aI200
aI58
aI79
aI139
aI0
aI0
aI0
aI0
aI170
aI147
aI195
aI5
aI0
aI0
aI0
aI0
aI10
aI216
aI98
aI135
aI0
aI0
aI0
aI0
aI183
aI209
aI144
aI87
aI0
aI0
aI0
aI0
aI202
aI214
aI216
aI177
aI0
aI0
aI0
aI0
aI81
aI224
aI168
aI139
aI0
aI0
aI0
aI0
aI120
aI163
aI152
aI53
aI0
aI0
aI0
aI0
aI10
aI212
aI199
aI225
aI0
aI0
aI0
aI0
aI98
aI171
aI184
aI186
aI0
aI0
aI0
aI0
aI65
aI25
aI104
aI178
aI0
aI0
aI0
aI0
aI85
aI41
aI167
aI205
aI0
aI0
aI0
aI0
aI54
aI251
aI203
aI213
aI0
aI0
aI0
aI0
aI143
aI108
aI136
aI215
aI0
aI0
aI0
aI0
aI4
aI70
aI219
aI84
aI0
aI0
aI0
aI0
aI42
aI230
aI183
aI103
aI0
aI0
aI0
aI0
aI9
aI5
aI49
aI26
aI0
aI0
aI0
aI0
aI238
aI249
aI34
aI210
aI0
aI0
aI0
aI0
aI244
aI69
aI160
aI205
aI0
aI0
aI0
aI0
aI45
aI9
aI54
aI115
aI0
aI0
aI0
aI0
aI244
aI200
aI204
aI72
aI0
aI0
aI0
aI0
aI205
aI67
aI16
aI188
aI0
aI0
aI0
aI0
aI41
aI133
aI248
aI34
aI0
aI0
aI0
aI0
aI88
aI223
aI168
aI91
aI0
aI0
aI0
aI0
aI99
aI52
aI143
aI64
aI0
aI0
aI0
aI0
aI246
aI206
aI77
aI110
aI0
aI0
aI0
aI0
aI237
aI100
aI235
aI182
aI0
aI0
aI0
aI0
aI220
aI184
aI44
aI110
aI0
aI0
aI0
aI0
aI134
aI108
aI133
aI238
aI0
aI0
aI0
aI0
aI75
aI68
aI7
aI198
aI0
aI0
aI0
aI0
aI81
aI16
aI91
aI103
aI0
aI0
aI0
aI0
aI21
aI225
aI150
aI136
aI0
aI0
aI0
aI0
aI223
aI36
aI95
aI129
aI0
aI0
aI0
aI0
aI120
aI96
aI120
aI243
aI0
aI0
aI0
aI0
aI15
aI191
aI3
aI22
aI0
aI0
aI0
aI0
aI46
aI242
aI35
aI223
aI0
aI0
aI0
aI0
aI225
aI206
aI164
aI91
aI0
aI0
aI0
aI0
aI104
aI87
aI208
aI200
aI0
aI0
aI0
aI0
aI97
aI168
aI9
aI97
aI0
aI0
aI0
aI0
aI238
aI245
aI125
aI216
aI0
aI0
aI0
aI0
aI128
aI61
aI227
aI7
aI0
aI0
aI0
aI0
aI94
aI233
aI37
aI92
aI0
aI0
aI0
aI0
aI241
aI45
aI175
aI92
aI0
aI0
aI0
aI0
aI129
aI213
aI83
aI247
aI0
aI0
aI0
aI0
aI229
aI102
aI206
aI72
aI0
aI0
aI0
aI0
aI88
aI21
aI56
aI219
aI0
aI0
aI0
aI0
aI248
aI26
aI125
aI243
aI0
aI0
aI0
aI0
aI161
aI57
aI210
aI221
aI0
aI0
aI0
aI0
aI158
aI219
aI253
aI171
aI0
aI0
aI0
aI0
aI26
aI74
aI28
aI88
aI0
aI0
aI0
aI0
aI66
aI197
aI54
aI224
aI0
aI0
aI0
aI0
aI78
aI227
aI204
aI78
aI0
aI0
aI0
aI0
aI134
aI163
aI253
aI66
aI0
aI0
aI0
aI0
aI223
aI70
aI212
aI243
aI0
aI0
aI0
aI0
aI91
aI170
aI210
aI225
aI0
aI0
aI0
aI0
aI143
aI31
aI59
aI134
aI0
aI0
aI0
aI0
aI115
aI158
aI106
aI107
aI0
aI0
aI0
aI0
aI104
aI195
aI50
aI76
aI0
aI0
aI0
aI0
aI175
aI24
aI117
aI73
aI0
aI0
aI0
aI0
aI31
aI244
aI251
aI22
aI0
aI0
aI0
aI0
aI236
aI116
aI8
aI235
aI0
aI0
aI0
aI0
aI168
aI180
aI138
aI41
aI0
aI0
aI0
aI0
aI176
aI177
aI101
aI150
aI0
aI0
aI0
aI0
aI252
aI53
aI82
aI48
aI0
aI0
aI0
aI0
aI125
aI61
aI71
aI180
aI0
aI0
aI0
aI0
aI129
aI76
aI52
aI120
aI0
aI0
aI0
aI0
aI14
aI103
aI241
aI254
aI0
aI0
aI0
aI0
aI196
aI119
aI190
aI1
aI0
aI0
aI0
aI0
aI124
aI253
aI72
aI95
aI0
aI0
aI0
aI0
aI223
aI207
aI86
aI56
aI0
aI0
aI0
aI0
aI157
aI0
aI69
aI17
aI0
aI0
aI0
aI0
aI250
aI248
aI79
aI194
aI0
aI0
aI0
aI0
aI106
aI33
aI120
aI172
aI0
aI0
aI0
aI0
aI46
aI56
aI151
aI44
aI0
aI0
aI0
aI0
aI10
aI164
aI103
aI56
aI0
aI0
aI0
aI0
aI163
aI125
aI2
aI108
aI0
aI0
aI0
aI0
aI192
aI112
aI120
aI173
aI0
aI0
aI0
aI0
aI114
aI151
aI218
aI133
aI0
aI0
aI0
aI0
aI232
aI147
aI108
aI74
aI0
aI0
aI0
aI0
aI238
aI113
aI23
aI202
aI0
aI0
aI0
aI0
aI169
aI214
aI98
aI5
aI0
aI0
aI0
aI0
aI223
aI72
aI154
aI194
aI0
aI0
aI0
aI0
aI35
aI161
aI45
aI177
aI0
aI0
aI0
aI0
aI176
aI28
aI23
aI115
aI0
aI0
aI0
aI0
aI23
aI152
aI219
aI0
aI0
aI0
aI0
aI0
aI107
aI15
aI152
aI156
aI0
aI0
aI0
aI0
aI39
aI126
aI142
aI220
aI0
aI0
aI0
aI0
aI130
aI13
aI241
aI177
aI0
aI0
aI0
aI0
aI40
aI178
aI200
aI53
aI0
aI0
aI0
aI0
aI218
aI133
aI99
aI69
aI0
aI0
aI0
aI0
aI0
aI112
aI209
aI217
aI0
aI0
aI0
aI0
aI35
aI1
aI55
aI85
aI0
aI0
aI0
aI0
aI99
aI97
aI200
aI49
aI0
aI0
aI0
aI0
aI115
aI7
aI135
aI220
aI0
aI0
aI0
aI0
aI24
aI141
aI154
aI227
aI0
aI0
aI0
aI0
aI20
aI226
aI210
aI32
aI0
aI0
aI0
aI0
aI11
aI61
aI241
aI17
aI0
aI0
aI0
aI0
aI240
aI154
aI64
aI89
aI0
aI0
aI0
aI0
aI78
aI125
aI94
aI236
aI0
aI0
aI0
aI0
aI248
aI16
aI125
aI97
aI0
aI0
aI0
aI0
aI60
aI14
aI206
aI230
aI0
aI0
aI0
aI0
aI105
aI165
aI169
aI25
aI0
aI0
aI0
aI0
aI9
aI108
aI207
aI160
aI0
aI0
aI0
aI0
aI203
aI151
aI127
aI159
aI0
aI0
aI0
aI0
aI228
aI104
aI126
aI179
aI0
aI0
aI0
aI0
aI181
aI60
aI137
aI130
aI0
aI0
aI0
aI0
aI156
aI236
aI15
aI65
aI0
aI0
aI0
aI0
aI179
aI68
aI201
aI107
aI0
aI0
aI0
aI0
aI140
aI49
aI21
aI124
aI0
aI0
aI0
aI0
aI168
aI22
aI240
aI126
aI0
aI0
aI0
aI0
aI19
aI215
aI130
aI160
aI0
aI0
aI0
aI0
aI136
aI70
aI155
aI110
aI0
aI0
aI0
aI0
aI125
aI153
aI133
aI178
aI0
aI0
aI0
aI0
aI205
aI7
aI221
aI214
aI0
aI0
aI0
aI0
aI140
aI252
aI3
aI8
aI0
aI0
aI0
aI0
aI56
aI222
aI33
aI117
aI0
aI0
aI0
aI0
aI189
aI57
aI95
aI35
aI0
aI0
aI0
aI0
aI150
aI26
aI27
aI175
aI0
aI0
aI0
aI0
aI214
aI145
aI68
aI50
aI0
aI0
aI0
aI0
aI82
aI187
aI131
aI134
aI0
aI0
aI0
aI0
aI143
aI2
aI52
aI4
aI0
aI0
aI0
aI0
aI61
aI75
aI26
aI101
aI0
aI0
aI0
aI0
aI239
aI86
aI121
aI85
aI0
aI0
aI0
aI0
aI81
aI128
aI218
aI75
aI0
aI0
aI0
aI0
aI43
aI154
aI21
aI20
aI0
aI0
aI0
aI0
aI51
aI115
aI41
aI248
aI0
aI0
aI0
aI0
aI62
aI31
aI107
aI222
aI0
aI0
aI0
aI0
aI19
aI114
aI171
aI164
aI0
aI0
aI0
aI0
aI94
aI227
aI36
aI187
aI0
aI0
aI0
aI0
aI19
aI49
aI13
aI88
aI0
aI0
aI0
aI0
aI81
aI85
aI171
aI101
aI0
aI0
aI0
aI0
aI12
aI68
aI159
aI65
aI0
aI0
aI0
aI0
aI208
aI64
aI80
aI45
aI0
aI0
aI0
aI0
aI121
aI185
aI233
aI44
aI0
aI0
aI0
aI0
aI195
aI209
aI26
aI102
aI0
aI0
aI0
aI0
aI178
aI219
aI153
aI56
aI0
aI0
aI0
aI0
aI247
aI62
aI99
aI111
aI0
aI0
aI0
aI0
aI29
aI28
aI158
aI31
aI0
aI0
aI0
aI0
aI178
aI238
aI184
aI197
aI0
aI0
aI0
aI0
aI89
aI209
aI160
aI46
aI0
aI0
aI0
aI0
aI69
aI24
aI71
aI93
aI0
aI0
aI0
aI0
aI56
aI156
aI37
aI202
aI0
aI0
aI0
aI0
aI29
aI60
aI208
aI28
aI0
aI0
aI0
aI0
aI192
aI135
aI224
aI98
aI0
aI0
aI0
aI0
aI175
aI203
aI155
aI116
aI0
aI0
aI0
aI0
aI184
aI74
aI15
aI26
aI0
aI0
aI0
aI0
aI235
aI178
aI255
aI6
aI0
aI0
aI0
aI0
aI193
aI25
aI116
aI118
aI0
aI0
aI0
aI0
aI152
aI14
aI94
aI181
aI0
aI0
aI0
aI0
aI72
aI10
aI177
aI56
aI0
aI0
aI0
aI0
aI231
aI97
aI139
aI220
aI0
aI0
aI0
aI0
aI86
aI212
aI142
aI222
aI0
aI0
aI0
aI0
aI218
aI223
aI48
aI131
aI0
aI0
aI0
aI0
aI201
aI55
aI179
aI211
aI0
aI0
aI0
aI0
aI157
aI186
aI74
aI223
aI0
aI0
aI0
aI0
aI19
aI58
aI108
aI237
aI0
aI0
aI0
aI0
aI168
aI30
aI96
aI86
aI0
aI0
aI0
aI0
aI23
aI104
aI216
aI105
aI0
aI0
aI0
aI0
aI130
aI134
aI0
aI118
aI0
aI0
aI0
aI0
aI101
aI175
aI16
aI145
aI0
aI0
aI0
aI0
aI187
aI169
aI75
aI192
aI0
aI0
aI0
aI0
aI237
aI225
aI177
aI42
aI0
aI0
aI0
aI0
aI80
aI113
aI159
aI149
aI0
aI0
aI0
aI0
aI191
aI146
aI254
aI169
aI0
aI0
aI0
aI0
aI9
aI56
aI175
aI9
aI0
aI0
aI0
aI0
aI149
aI232
aI146
aI34
aI0
aI0
aI0
aI0
aI37
aI16
aI148
aI157
aI0
aI0
aI0
aI0
aI199
aI190
aI124
aI248
aI0
aI0
aI0
aI0
aI43
aI68
aI63
aI44
aI0
aI0
aI0
aI0
aI84
aI47
aI148
aI11
aI0
aI0
aI0
aI0
aI1
aI205
aI171
aI158
aI0
aI0
aI0
aI0
aI136
aI134
aI245
aI255
aI0
aI0
aI0
aI0
aI169
aI72
aI121
aI183
aI0
aI0
aI0
aI0
aI201
aI33
aI137
aI242
aI0
aI0
aI0
aI0
aI54
aI107
aI150
aI23
aI0
aI0
aI0
aI0
aI108
aI169
aI31
aI201
aI0
aI0
aI0
aI0
aI217
aI40
aI20
aI119
aI0
aI0
aI0
aI0
aI75
aI254
aI139
aI78
aI0
aI0
aI0
aI0
aI180
aI69
aI74
aI107
aI0
aI0
aI0
aI0
aI231
aI207
aI226
aI109
aI0
aI0
aI0
aI0
aI15
aI180
aI195
aI255
aI0
aI0
aI0
aI0
aI161
aI191
aI127
aI160
aI0
aI0
aI0
aI0
aI120
aI34
aI31
aI78
aI0
aI0
aI0
aI0
aI18
aI5
aI140
aI54
aI0
aI0
aI0
aI0
aI136
aI13
aI192
aI253
aI0
aI0
aI0
aI0
aI5
aI37
aI164
aI5
aI0
aI0
aI0
aI0
aI170
aI191
aI161
aI132
aI0
aI0
aI0
aI0
aI98
aI237
aI53
aI145
aI0
aI0
aI0
aI0
aI75
aI22
aI71
aI113
aI0
aI0
aI0
aI0
aI186
aI235
aI228
aI247
aI0
aI0
aI0
aI0
aI162
aI4
aI91
aI68
aI0
aI0
aI0
aI0
aI142
aI69
aI157
aI119
aI0
aI0
aI0
aI0
aI130
aI24
aI235
aI217
aI0
aI0
aI0
aI0
aI51
aI83
aI47
aI222
aI0
aI0
aI0
aI0
aI20
aI49
aI113
aI195
aI0
aI0
aI0
aI0
aI7
aI120
aI52
aI96
aI0
aI0
aI0
aI0
aI70
aI44
aI235
aI98
aI0
aI0
aI0
aI0
aI220
aI16
aI100
aI219
aI0
aI0
aI0
aI0
aI55
aI113
aI170
aI38
aI0
aI0
aI0
aI0
aI118
aI12
aI64
aI249
aI0
aI0
aI0
aI0
aI104
aI4
aI14
aI73
aI0
aI0
aI0
aI0
aI201
aI8
aI114
aI33
aI0
aI0
aI0
aI0
aI163
aI217
aI134
aI41
aI0
aI0
aI0
aI0
aI130
aI208
aI214
aI206
aI0
aI0
aI0
aI0
aI170
aI5
aI168
aI194
aI0
aI0
aI0
aI0
aI229
aI145
aI161
aI113
aI0
aI0
aI0
aI0
aI5
aI129
aI153
aI181
aI0
aI0
aI0
aI0
aI203
aI196
aI239
aI116
aI0
aI0
aI0
aI0
aI93
aI88
aI129
aI36
aI0
aI0
aI0
aI0
aI40
aI53
aI104
aI86
aI0
aI0
aI0
aI0
aI229
aI214
aI51
aI54
aI0
aI0
aI0
aI0
aI117
aI49
aI202
aI238
aI0
aI0
aI0
aI0
aI80
aI3
aI54
aI120
aI0
aI0
aI0
aI0
aI65
aI65
aI127
aI122
aI0
aI0
aI0
aI0
aI132
aI106
aI212
aI190
aI0
aI0
aI0
aI0
aI140
aI148
aI60
aI44
aI0
aI0
aI0
aI0
aI6
aI223
aI203
aI246
aI0
aI0
aI0
aI0
aI113
aI210
aI211
aI94
aI0
aI0
aI0
aI0
aI98
aI253
aI28
aI63
aI0
aI0
aI0
aI0
aI1
aI37
aI136
aI216
aI0
aI0
aI0
aI0
aI78
aI137
aI164
aI208
aI0
aI0
aI0
aI0
aI124
aI6
aI37
aI119
aI0
aI0
aI0
aI0
aI244
aI30
aI86
aI51
aI0
aI0
aI0
aI0
aI139
aI3
aI199
aI204
aI0
aI0
aI0
aI0
aI91
aI8
aI39
aI222
aI0
aI0
aI0
aI0
aI181
aI163
aI119
aI203
aI0
aI0
aI0
aI0
aI153
aI127
aI84
aI40
aI0
aI0
aI0
aI0
aI199
aI127
aI5
aI85
aI0
aI0
aI0
aI0
aI64
aI31
aI0
aI51
aI0
aI0
aI0
aI0
aI163
aI98
aI129
aI248
aI0
aI0
aI0
aI0
aI202
aI253
aI99
aI50
aI0
aI0
aI0
aI0
aI206
aI43
aI60
aI213
aI0
aI0
aI0
aI0
aI193
aI244
aI76
aI248
aI0
aI0
aI0
aI0
aI11
aI127
aI223
aI109
aI0
aI0
aI0
aI0
aI19
aI32
aI172
aI85
aI0
aI0
aI0
aI0
aI244
aI192
aI254
aI16
aI0
aI0
aI0
aI0
aI153
aI229
aI176
aI95
aI0
aI0
aI0
aI0
aI222
aI50
aI21
aI23
aI0
aI0
aI0
aI0
aI108
aI113
aI218
aI142
aI0
aI0
aI0
aI0
aI168
aI165
aI198
aI12
aI0
aI0
aI0
aI0
aI91
aI84
aI134
aI204
aI0
aI0
aI0
aI0
aI227
aI27
aI189
aI247
aI0
aI0
aI0
aI0
aI5
aI111
aI238
aI21
aI0
aI0
aI0
aI0
aI0
aI174
aI99
aI123
aI0
aI0
aI0
aI0
aI74
aI68
aI196
aI140
aI0
aI0
aI0
aI0
aI71
aI251
aI8
aI136
aI0
aI0
aI0
aI0
aI75
aI219
aI10
aI134
aI0
aI0
aI0
aI0
aI206
aI166
aI74
aI159
aI0
aI0
aI0
aI0
aI62
aI43
aI70
aI246
aI0
aI0
aI0
aI0
aI30
aI131
aI33
aI94
aI0
aI0
aI0
aI0
aI202
aI60
aI221
aI151
aI0
aI0
aI0
aI0
aI214
aI87
aI169
aI128
aI0
aI0
aI0
aI0
aI186
aI5
aI108
aI133
aI0
aI0
aI0
aI0
aI35
aI113
aI64
aI69
aI0
aI0
aI0
aI0
aI225
aI221
aI27
aI22
aI0
aI0
aI0
aI0
aI245
aI202
aI239
aI100
aI0
aI0
aI0
aI0
aI187
aI6
aI136
aI163
aI0
aI0
aI0
aI0
aI246
aI26
aI16
aI106
aI0
aI0
aI0
aI0
aI49
aI219
aI49
aI226
aI0
aI0
aI0
aI0
aI203
aI75
aI12
aI162
aI0
aI0
aI0
aI0
aI120
aI154
aI145
aI67
aI0
aI0
aI0
aI0
aI129
aI171
aI85
aI84
aI0
aI0
aI0
aI0
aI32
aI180
aI185
aI23
aI0
aI0
aI0
aI0
aI141
aI27
aI210
aI109
aI0
aI0
aI0
aI0
aI142
aI106
aI27
aI151
aI0
aI0
aI0
aI0
aI226
aI15
aI103
aI41
aI0
aI0
aI0
aI0
aI122
aI72
aI71
aI161
aI0
aI0
aI0
aI0
aI26
aI5
aI249
aI82
aI0
aI0
aI0
aI0
aI197
aI229
aI76
aI11
aI0
aI0
aI0
aI0
aI227
aI160
aI78
aI1
aI0
aI0
aI0
aI0
aI9
aI204
aI63
aI54
aI0
aI0
aI0
aI0
aI218
aI168
aI239
aI70
aI0
aI0
aI0
aI0
aI161
aI37
aI91
aI255
aI0
aI0
aI0
aI0
aI155
aI245
aI152
aI53
aI0
aI0
aI0
aI0
aI37
aI55
aI197
aI252
aI0
aI0
aI0
aI0
aI61
aI32
aI157
aI21
aI0
aI0
aI0
aI0
aI73
aI162
aI24
aI228
aI0
aI0
aI0
aI0
aI1
aI5
aI232
aI246
aI0
aI0
aI0
aI0
aI2
aI138
aI171
aI43
aI0
aI0
aI0
aI0
aI222
aI149
aI223
aI93
aI0
aI0
aI0
aI0
aI174
aI125
aI33
aI7
aI0
aI0
aI0
aI0
aI173
aI109
aI96
aI24
aI0
aI0
aI0
aI0
aI98
aI112
aI205
aI131
aI0
aI0
aI0
aI0
aI6
aI254
aI136
aI232
aI0
aI0
aI0
aI0
aI201
aI251
aI251
aI125
aI0
aI0
aI0
aI0
aI182
aI255
aI74
aI197
aI0
aI0
aI0
aI0
aI14
aI31
aI139
aI19
aI0
aI0
aI0
aI0
aI10
aI21
aI34
aI214
aI0
aI0
aI0
aI0
aI219
aI114
aI149
aI126
aI0
aI0
aI0
aI0
aI233
aI212
aI92
aI3
aI0
aI0
aI0
aI0
aI182
aI41
aI17
aI246
aI0
aI0
aI0
aI0
aI243
aI123
aI207
aI127
aI0
aI0
aI0
aI0
aI2
aI200
aI150
aI70
aI0
aI0
aI0
aI0
aI209
aI72
aI43
aI216
aI0
aI0
aI0
aI0
aI33
aI113
aI69
aI202
aI0
aI0
aI0
aI0
aI125
aI187
aI109
aI23
aI0
aI0
aI0
aI0
aI208
aI112
aI251
aI171
aI0
aI0
aI0
aI0
aI227
aI77
aI217
aI155
aI0
aI0
aI0
aI0
aI28
aI27
aI170
aI56
aI0
aI0
aI0
aI0
aI160
aI50
aI140
aI72
aI0
aI0
aI0
aI0
aI154
aI200
aI184
aI166
aI0
aI0
aI0
aI0
aI214
aI132
aI17
aI153
aI0
aI0
aI0
aI0
aI216
aI188
aI92
aI20
aI0
aI0
aI0
aI0
aI92
aI91
aI15
aI141
aI0
aI0
aI0
aI0
aI79
aI57
aI136
aI189
aI0
aI0
aI0
aI0
aI97
aI77
aI45
aI0
aI0
aI0
aI0
aI0
aI248
aI172
aI244
aI197
aI0
aI0
aI0
aI0
aI103
aI210
aI179
aI204
aI0
aI0
aI0
aI0
aI237
aI56
aI153
aI204
aI0
aI0
aI0
aI0
aI176
aI210
aI74
aI74
aI0
aI0
aI0
aI0
aI165
aI183
aI193
aI219
aI0
aI0
aI0
aI0
aI232
aI129
aI112
aI27
aI0
aI0
aI0
aI0
aI129
aI19
aI227
aI113
aI0
aI0
aI0
aI0
aI128
aI92
aI149
aI217
aI0
aI0
aI0
aI0
aI97
aI177
aI224
aI89
aI0
aI0
aI0
aI0
aI94
aI247
aI231
aI202
aI0
aI0
aI0
aI0
aI86
aI152
aI137
aI0
aI0
aI0
aI0
aI0
aI0
aI0
aI128
aI117
aI77
aI211
aI231
aI63
aI0
aI0
aI64
aI248
aI196
aI2
aI215
aI63
aI24
aI87
aI67
aI212
aI78
aI53
aI238
aI63
aI0
aI0
aI0
aI0
aI0
aI0
aI0
aI0
atRp22
I0
(L5048L
t(L1L
ttRp23
sbsS'train_steps'
p24
I99950
sS'max_grad_norm'
p25
F219.46869480368281
s.