(dp1
S'random_state'
p2
ccopy_reg
_reconstructor
p3
(ctextmorph.edit_model.training_run
RandomState
p4
c__builtin__
object
p5
NtRp6
(dp7
S'np'
p8
(S'MT19937'
p9
cnumpy.core.multiarray
_reconstruct
p10
(cnumpy
ndarray
p11
(I0
tS'b'
tRp12
(I1
(I624
tcnumpy
dtype
p13
(S'u4'
I0
I1
tRp14
(I3
S'<'
NNNI-1
I-1
I0
tbI00
S'\x1b\xb5l\x9a+\x10:\xbb\xda|\xedc?Q\xd1\xdc\xe9<Z\x0fk\xbcX\x8eK\xb8\x97\xefL\xceL\x89&\x8a\xef\x86\t(\x8a-\xc5\xe8 m\xff\xc8\xb1\x04\x9c\x04\xc9\x16\xfd\x1fV\x06\xd4\x14\xba>g\x96\x07\x97>\x01\xfffd\x04\xcar\xb5\x7f\xee\xee\xaa\x14\xb6\xb1lx\xfc\x91\xa1\xf0\x04\xd7\xf5)\x84?\xe6\xb8\x16\xb3\xf2\x1e\xd5\x9e\xce\xb0\xde;\xebb\xf6\xd5\x13J\x8bf\x12aC\xea\xfd\xd0>-\xd3D\xe5[\xf0M\x0b#\xb2\xa4K\x0e\xa8\xd2]o9}\xdb%\xbe\x02\xf3.^\x16\xb6\x83\x89/\x1e\xf5;7_\xecB\x00(imA4L\xa4*\x0ff#Y\x04\x1e\x81\xdb\xe1y\n\x1c6{X\xdcP\xff\x17\xa5!\x81\'hZ\x81\x18\xfc\xf9\xe6\x97\x82Qk\xa2\xaf\xfe\xe3B\x1di\x05KL\x16[\xc6\xf6\x00\xb6%\xb66\x00\x95\xe31\x85\r\x1e\xeeI\xb0A29\x8ed}N\xc3 \xf1\x08\x8f\xab\xad8\x0fA\xad\x0b\xa4|\xc6,\xc9A\xa3z:\xde\n\x85\x1f\xa6\xb2\x10\xa9\x00S\xf2=<,\xf4\x95_c\xa9\xa3/\xc1\x053\x86g\xd2\xce,\xc0c\xf2\xab\xb1\xa0x\x15\xb2\x0e[\xae\x1f\x82c\x1b\xd7\xd7k\x82yd"\xf6\xa6<\xa6wgo\xe7\xe8i.\xe2\xbc_\xb8\xea\xe5\xfb\xc6f\x1b\xe8T!!L\x86`\xac\x0f\xc7\x13\xaed\xa3B\xe4\xd9\xde\xd2\xda+6\x18\xd0\x0f@L\x9c\xf1\xa2\xa7\'\x1d\xdf\xe0\x15\xfe\x0cg\x1b\xce2N\x15\xc4r\x13\xb1\xa9\x0e\xb5\x1dU[#\x9f\xdd\x88\xca\xf8\xebj\xea\x82\xd1\xa4\x92h\x1c\xfa\x1aT\x1d8\xcd \x80a\xcd\x84\xff<nL\xe9`|\x10\xc7!\xcf\x1dO\x16HJ\xd6nd\xb4\xf2\x0c\xa7\xad:\xc8\xbb*\xfa={?\xb2\x13\xaf\xe6Z<\x99\x9ap\x19Pb`\xaf\xc4\xf0i\xaa\'>\xb8X\\\x8d\xb1H\xc8UOH9\x83\x91e\x88l\x18\xf0\x0bp\xd9I\xa0\x1b\t]}\xa1v\xe5\x97\x84]\xcf\xb2\x07\xda\x81+\xe4\'\xaa\x06I\x1e\xd2hE\x0f\x07..\\\xe6\xa5\xecD#%\xb1M\xbb"R\x08\x92s\x9e\xebuT\xaa\xaf\xc9\x82\xef\xcf*\xcb\x8a\xea\xf4\xce\x98\xcdD[\x93Z\xb0B\x13A\xe7t\xa8&\xba\xbdM!\xcc\xf4\xeb\x9e\xe8\x02I\xc1\xc7N&\xb6\xcd\xc5\x0em\xd6{\xf7\xd6\x1a0@\x10\xcb\xaeO\xa0F\x8d\xb6\xa1(q\x0f\xc6\xf5\xbd\x07@q\xa4\x19\x8b\xa49M\x1e\x8e\xd6\x86\xcf\xa1F\xf6\xc7G\xeb\x88\xf5\x8f\xd1\xee#\xb4G4b*\xe8\x16\xf6\xf6\xbb\x0f<*\x02\x83\x98\xb8\xb1{\xab\xff\xcb\xac&(\x01\x15P\xb2\x15\x95K\x97?4j3\xa4\xf4\xb7\x14!\xa3f<:[\x1fn3\xa0\xf0:\xbf\xfa:0\x19\xf6\xc6\xca\x81\xbd\xd2c[\xfe><\xf1_t\tJg\xa3-\tD\xaf\x9a\xa8DKBe\x13L\\\xc3\x9c\xb0\x80\x00\x85\xaf\x16t\xe9\xa9\x89\x9f\xf8a\x8e\xed6hg\x0fcg+./\x02\xb2\xe2\xf3=e\xa2\xf2u\xbbk\xc0\xec\xe9`\xa4\x87R\xe5\xb7\xaa\xa9\x08\xadL*\xc0f\x92\xdc\xa1y\x0e\x88\x17\xdfo\xb3\x9d; \xe5\xf0\xf4mU\xe8\x81%\x82hG\xbd\x00\xb3\x10\xb4\xda2\x80\x88"\x8b\x90w\x99\x1f.\x06a\nQ~MH\xff+\x1e\x10\xdf2\x17,IM\xdfp?8`\x9c\xb9\xacak\x82.\x8e\xa1\x7f\xb9\xc7\x00\xa63\x14\xb3az\x88\xd9\xcd|%h\xcfN\x86\xf7\xb1\xb31\xc7m\xb3\x98\xbc\xa7\xcb7\xd5\xfa\xcfO(\xa6\xf4\xb3om\xb0U\xf0M5\xaa\xb9\xef\'h\xc6\xe1\x8a\xa5"\xf1\xf8#\xc7K\x97\xf8\xef\xa7\xde\x96z\xe3=\xe6I\x0fd\x04P\xa8\xbd)\x0e\xfa\x0b\x9b\xc9\x03\xcdi\xb61^\x94\x8b\x11\xce\x0e!\x99\xcf\xceB\xee\xda\xa0>\xce\xca\xf8)\xa2\x16"\xbaTY\xc1\x08\xf88\x9a+x\xa9\x06\x81\x8cZ\xb8D\xeb\xb6\xeb\xb7F\xf5\xa9\xce.u\xe9\xf0XR\xf1\xc0e*XP\x9d8}5\xe1l\xe4^\x8b\x1e\xd5\x0e\xbbi\xee\xcc\xfb\x05\x83\xe2\xffF|Q\xd1\xafL\xda\xe0\xca\xbf\xbeg\x17\x8f\xe8\xc3\xd6c\xa7p\xce\x9d\xb2\x8al\x99U\xcc\xd7} \x91\xf7\xf9\x12XG\xff\xb2}\x9e\xefKE\xa4"\x9f1\xbbQ&\x96Cr\xcf\xa0<nX\xe1\x96\xd7\xb8\xf2\xd3\x86U\x8f\x9ej\x0f1\xe0X=\xaf\xd9\xff\xe0O~\x01\xf6q"74\xba\xee\xa5\'\xb3\xdbG\xa2\xea\x93\xf6\xae\x86\xaf\xd15\xb4\x81\x0b\xc57\xc1\x91T-\xa6Jb>\x97\x7fJ\xcc+j\xbc\xd0l\x11\xdd\xa9+*:\x0b\xcfl\xc7`\xa8\x89\x87v\xa8\xdad+\xec\xeb!\xb3\x97\x8dFi\xcc\n\xc9\xaf((\xcc^yo_\x8a*\xf6\xee\x9e\xe9\x81\xbf\xd5\xfcC\x87\xc89\xd1-\'\x88\x96n\x9f\x10\x8a\xd5\xc9\x85\xed:\xda\x8e\xfdP\xf5\xeaP\x13\xbe\xde\x8f\xcd\xa0>D\x92\xcdV\xad\x10\'&4\xda\xee\xe6\xb5\xc5\xd9o\xfe{\xc5tnX)x\xe4\x024\x17\xceX\x11(\xb4=\x87\xecyg\xef}uS\xaa)\xfb\xb0\xb8\xa7D\xc0\x85UdV\xfe\xa1\xa5\xe3\xda\x0f}\x0b\xb6j2Y\'\x93\x1b\xd3+,\x8ft\x89\x13\x1c6\x98s.z\x02\xbd\xd1\xb4G\x98\xcd\xe1\xda\xd2\x9fT}\x87\x02\x94\x0f\x87\xe2\x921\xc4\xd2\xbc|\xcdr6\x1e\xc9\xf2g\xa6x\t\xa3\x13z\xd4\xff\x90\xef+\xb3#\xdb\n\xe6\xb0\xa3\xf1H\xdfd\xfan(I\x14|n|\xc8\xb2G\x9b\xab{\xef\x14\x8f\xbcN\x8a-1]l\xf3y\xc8XG\xf9\xf3^\x11\xbc\xba\x9f\x97\xcc\xdaB?\x0e\nz\x7f\xeaD\xdchLG\xa5I\n\x8f#u\xcb\x87\x01\x06F\xec;\x95\xa9~\x12\xe8F\xd2\xcd\x10\xb0\xd7`4G\xd2\xc9\x13\xa3\xef\xdbSa"9XT\x0c\xb3?/\xa4m)+\x17$5\x88\x8d\xe8\xaa\xa1\x95\xa97_l\xf2\'?I7\x87\x0cn,P\xfb\xca\x0f\xe3h\xd4\x8ep\xc3}M\x83@\x94X\x84\xce\x9c\x85\xb9\xa9\xfcs\xe0\\\xbc{\x92\xb3Y\xfa\xfc\xff\x85\x1b\x88\xb1\x01cr\x8c\xe8\x87\xfc?f=a\xf6\x8f\x07\x87\xdf\xb9\x88G7Ri\x17\x94e\x96\xc8\x19\xfdbF\\}(\x1f\xae^\xd4?eC%\xf1\xf8\xc9\x1c\xe00\x1d:L\xfe\xba)\x1c&\x13L\xcd\xc2`\xeaD\xbf\xa0\xaaY\x1b\xcb\x1c\x9d\x0c\x80\xce\x0e\xc1\xa7R\x10\xb1M\xa7\x06j\x05\xa71\xba\xfa\xc54_\xfeZ\xb9\xe8\n\xe9\xb8P[\xd7"\x9d\x11}h\x0f3\xf4\x11\xae\xf2\x89f\xf0\xa8\x05\x12s\xe4\xde\x00V\x1a\xfb\xbc\x87&/\xb3\xd5\xf5\xe2\t\\\xd4\xd8\xaf.\xae\xc2\x93\xd2\xce\x98\x81;D\xb5\x87\xdf\xe2\x85b\xab\x91\xbb\x08u\x9a\x8d9\xaa\x8b\xf9\xe6\xca\xf2\\\x1c?\xbf\xec\xc3\x1aJ?\x17\x1c\x9b\x19\x0eq\xd7\xee\xc9\xb5\x03Qzl;\x02\xdd\xf0\x90\xfa\xb91uCt\xa700*R\x0ew\xa6\xb5\xb6\x99>\xfe/\x7f(\xe5\xf1\x8f\x0e\xf4& 9\xcb\x7f\x0e\xf1\xb8\xe1[Z\x8f\xef\xf9\x90m\x0cy\xc8\xcc\x9dl@`\xc5\x15<Pw\x0b\xf2\xa1y\xe7\xd9Y\x801\xdc\xbf\xa5\x8d8\xf2\xd0\xb5\xb8\xa8\xe6k\xfc\xc6/L\xb2=H \x87\xc0\x18K\xb4\x02eK\xe5s^s/\xbf\xbd\x9b\xb4\x99\xdci\x81\xd9qUh\x7f\xc7\xca\x7f\x08/x\xdd\xb9^\xd6\x94\xa8\xa5\xf3j\xbf\x9a\x1f\xac\x9fL\x9a5!(\xab\x1c"\xa6Rgs\xe2\xea!\xd3>\xe3\xa7\x00!\x95Q\xea\xe0\xd9.X\x8d\xad\xf6\xa0 r!]8s\xf9v\x95\x11y\xde\x0b\x96\xfdc\xe0\xde\x88\xf1\xf82U\xd6r\xd3%x\xa5\x17\xb0\x04\xb7\xb7\xf6,\x83\x19\x14\xd6\x1a\x89\xbcc\xee&(\x8e0\xa0\x04P}\xd9o\xb9p\xb1\xd2!f\xef-\x99\xcf\xfb\xf6p\xfe\x91f\x0b\x9e\x04W\xdddZ\xfc\xd7\xd4M7\x0f\xe2v\xdb\xd6<X\x01s\xb7\xd9\x01\xe5\xe0v\x86-\xe2I\xc1\x85\xc2\x0f}\xb0\x96\xd5\xe2\xac[\xb8\x07>P"\x10\x04\x98E\xb1F\xf1\xa4\xc0L\x00\xbf\xc2v\xdew_\x8c\xe3G\x18\xe0*\xa79\xfb\xae\n\xc3bN\xd6%\xab\xd5\x81\x14\xb7y\xcf\xce\xbc\xbd \x15\xc0P\xa1n3\xbf\x8e\x1f\x8f\xd7is]\xf8\xc4\xc1\',\xd8\xcc1\xa8!\xcf\x96\xfeH\xfa\x8c\t\xbdU\x12((M\x9d\xa2\xf5W4\x9eD\xfd\xd0\x96i\xael\xbb\xe2\x8d\xf0\xc8\xc3\xac\xce\xdd\x1a\x9f\xed\xfd\x96\x04\xcfr\xc7\xeb\xcd"1\xd7"\x18\xe9\xd8y\xeb\xa6\x1e\xfc\xca\x0eW\r|\x05\xc9Sa\xc9/\x1e\xf0/0\x81\xc6q<\xb0\x86\xe6\x8b\xc6i\xc1\xf1)M\xb3bE`\x9c\xedd`nEB\x13\xa2\xe7\x95\xd1\xd5\x1d\xafTq\xf5\xbd\xf2\x81S\xeaF\xd4\xa9\xd5\t\x7f\xe8X\x8e\xc8\\\xff\x08\xd1$\xfa\xd9*f\xc3K\xd9\x06\xbd=6\x19\x89\xe4G\xdf\x1fGHD\xca\x1b\x06\'Z\xf2\x90\x85\x87\x12]-\xcb\xff\x96\xe5\xc5<\x91gC<\xce\x86S\x8e\xfb\xf8p\xf5\x03-\x0e\xb1|\xf1\x92u\xb9\xe1e\xda\xb7\x90\r\x00\xe6\xb9R\xa5<5\x94\x14\xb5\xe5\x973s\x0e\xb4\xc8\xfd\xdew<\x1d\x07\xa7QF\xba\xc4\xb30`5\xdb{3j\x8b\x9c\x8a\xeb\x04F\xd6\xd8\x96\xa4\x8f\xbb.b\xaa`f\x8e\xce\x19\xf2\xceH\xe5T\xe31#^\xc1\xf4U\xeb\xc6,\x10\xe9-\x99\x95\t\xbecq\xbe\x95\xbf\xd0=\xa1\x1c\xd8\x9b\x87\xbc\xbd\xc5\xdc\xdf\t\xea\x0c\xcd\xe7a\x16\x80\t\xb2G\x1b27B\xc6\xdc\xa1\x8f\xb9\xd2.\xab\xedCf\x18p\x0b\xb8t\x1d\xf9Y\x91\x1f\xed\x17g+HX\xeb\x01\xe0\x7f\xcc\x9fI$\xf1\xe7$\x14\xe9\x8c1\xc8y\x83\xa8\xa2\x97\x19R6\xa4"\xa3\xe9\x88\xb7\x18\xaa\xcf\xd8"D\x0e-S\x02\xaeyFM\xdb\xa5f-\xc6\xe0e\xe5k\xd3$a\x8f\xef\xdc\x96$\xa4\x85d\xbeW\xb1\xd0\xdf\x17\x1c\x8e\\\x85\xc9g\xe5q\xaa\x92\xcea\xe8\x08\xff\x96 (+\xefC\xc6\x1e\xcf\x89\x9fLV}W\x9b\x87|\xdc\x8fL\x93Ml\x84'
tbI48
I0
F0
tp15
sS'py'
p16
(I3
(L2657926634L
L2380225844L
L1203480267L
L1054875510L
L3036836121L
L2118330632L
L2402175406L
L2409017362L
L1975015918L
L659427962L
L711795942L
L3222841675L
L2968477330L
L180244912L
L51087103L
L3230416290L
L993981191L
L245155145L
L2107950236L
L2452159961L
L1926747398L
L818253529L
L325177904L
L4263641044L
L2781577057L
L2409976436L
L3489075855L
L3586951751L
L2648400045L
L325984714L
L2125509513L
L3148580490L
L1362048434L
L3517628216L
L3875894320L
L1137803695L
L1818547863L
L1355951616L
L3163720576L
L3628902347L
L3935125086L
L1470481064L
L2291376804L
L1301360570L
L978906585L
L3858110717L
L3944311503L
L986455432L
L1569866953L
L821943526L
L80347783L
L2540850419L
L3083678182L
L2951751824L
L1637010150L
L4175689813L
L1832004224L
L2781045318L
L3076102089L
L2907036109L
L229561021L
L3288644718L
L2929948562L
L3037869102L
L1306790879L
L1588886670L
L1605485297L
L2038272481L
L2522267701L
L3412139032L
L207284775L
L1977847759L
L164540960L
L3650655145L
L1491233084L
L415743912L
L545180000L
L1138319400L
L3783739494L
L3212823108L
L3923168061L
L1791184017L
L3230372456L
L3209966011L
L3163122582L
L769503239L
L2321757078L
L2648416628L
L2374194283L
L2637475605L
L1188453839L
L4014861564L
L1895854556L
L2168847239L
L317182362L
L580620143L
L3507402553L
L2452957730L
L2355548484L
L664103185L
L3285224876L
L3605017018L
L2608646270L
L3977258079L
L161917916L
L335606809L
L3246296722L
L1576513450L
L144578904L
L596666635L
L3011468861L
L3085213702L
L1965159360L
L3003986939L
L4263049230L
L1138587273L
L3411350719L
L1495383255L
L1503396086L
L3567264440L
L1041860613L
L4107454884L
L2914610974L
L3174516177L
L1186509620L
L2064979918L
L3688206836L
L139031100L
L91921682L
L1365543182L
L1555669765L
L3310888827L
L2541393219L
L4091283429L
L3968929693L
L2488966997L
L694192834L
L1009411218L
L163218361L
L454904777L
L95108026L
L2256922582L
L1087205570L
L615626472L
L2167536803L
L3250178814L
L4259677662L
L2234613004L
L3215770049L
L3298187785L
L827752081L
L786721562L
L3511391946L
L2320299672L
L1815696378L
L1610403870L
L3921637686L
L1844092698L
L4238640138L
L408521175L
L2260032962L
L4289786457L
L1638819355L
L3001339796L
L3703836261L
L841169511L
L778143478L
L3345929643L
L1573785578L
L1510678929L
L365187892L
L872814277L
L308740589L
L1948488935L
L3898040900L
L2204549202L
L2430786563L
L1197369783L
L2570822102L
L755866612L
L360578289L
L1072636613L
L3546133586L
L4196628859L
L1772762443L
L2248319173L
L1111608612L
L895920088L
L1263342794L
L3734168805L
L1927185541L
L3099223843L
L3298656554L
L620280882L
L2162463925L
L48392425L
L725746973L
L2148607668L
L3763792635L
L2813627243L
L1058056454L
L641168129L
L3845341248L
L1820697277L
L4236850953L
L272266897L
L2733152299L
L717426100L
L1317283552L
L3810357949L
L1158378907L
L9650627L
L4093567888L
L3938346063L
L1747759294L
L3023519947L
L248356991L
L3425365870L
L664368730L
L1953083023L
L4202406667L
L3223667130L
L1256248040L
L3741089672L
L3190766751L
L277340170L
L107922065L
L3057973416L
L2523538335L
L1061285491L
L3838693737L
L780621226L
L1721368380L
L99556705L
L4281435478L
L960579630L
L231435566L
L2616304679L
L1217657612L
L489705210L
L3939220445L
L1919155193L
L1173955955L
L2053607822L
L2850217468L
L1623109146L
L1894549852L
L3796486756L
L3394462580L
L670836687L
L590725668L
L1500928871L
L3439575938L
L1731589377L
L426937438L
L1461543397L
L345950754L
L361368941L
L1223976799L
L898564909L
L2471481451L
L132371105L
L125634282L
L560482465L
L3098942171L
L4003693805L
L2577143080L
L3179435380L
L1730860274L
L3179887882L
L1636707783L
L1510331708L
L2636611603L
L2177455157L
L991076812L
L2061510342L
L2129745423L
L3247783804L
L438692580L
L702051107L
L3857315639L
L1517925734L
L2407836740L
L1634840178L
L928498580L
L3535423493L
L3559837340L
L920257904L
L3645749881L
L2886571251L
L516652510L
L1540190698L
L126387449L
L4251876024L
L1358582454L
L4222534118L
L924328373L
L528425471L
L4121316709L
L3744790651L
L1700392370L
L779051688L
L2088974678L
L1772679555L
L2327480493L
L2373496454L
L2537576090L
L3325686524L
L3620867734L
L1658793079L
L4256755052L
L1752079590L
L3093402663L
L3123912022L
L2254330024L
L1554054733L
L132428434L
L3699664081L
L1560326749L
L993280754L
L2720840269L
L192924639L
L2579582052L
L1789918722L
L1796577170L
L55862813L
L1308099252L
L2374231240L
L3667813458L
L889044193L
L4151580043L
L3290854803L
L2500197912L
L4065686540L
L2075525605L
L3626363242L
L2552037611L
L2528848106L
L1070860743L
L2407795720L
L3546649866L
L3846037685L
L1982129949L
L1136216095L
L2655450669L
L3404484385L
L1242938610L
L2264780803L
L3883275261L
L1287922776L
L2953126732L
L4141251597L
L796533068L
L4215881718L
L1538625166L
L3102456157L
L641347955L
L3466020522L
L1004520789L
L1517900678L
L239186288L
L3486216092L
L1001224570L
L1190738198L
L1703082502L
L3631510521L
L3212402832L
L2456451205L
L2057461174L
L4271838722L
L3443606900L
L886204072L
L373862357L
L2661652413L
L1305713194L
L3081597957L
L3074022017L
L1987261543L
L2051794502L
L999828204L
L943051746L
L944571269L
L3149289881L
L1613818290L
L3339987756L
L2090055354L
L422040141L
L3794713792L
L1744253168L
L1610905932L
L3140519440L
L728002660L
L2170901809L
L313826469L
L2264967660L
L3376825451L
L857364819L
L3178393007L
L4079157109L
L703421105L
L1768396707L
L1636677875L
L4279370826L
L3421034642L
L3640861356L
L4192607429L
L1845321635L
L3879846927L
L1585688294L
L2226086690L
L2841348079L
L2924428619L
L936578117L
L139066980L
L3062236026L
L16625446L
L177275169L
L1656145071L
L4184309863L
L1548608676L
L2785172663L
L2501035912L
L2416340878L
L2499207229L
L1649197145L
L976122553L
L4081993560L
L3328513963L
L3312315387L
L140230443L
L950380299L
L2540572120L
L1696539301L
L380463058L
L2618996864L
L1025151744L
L1021533320L
L4113401705L
L2877822590L
L4016567458L
L2546897149L
L1416868203L
L41950157L
L2854742480L
L1672550007L
L4018743462L
L3269692534L
L15781868L
L282906089L
L3774686348L
L1981220549L
L2730106609L
L355900538L
L3978160083L
L7953695L
L3050698284L
L828562494L
L2498444256L
L3297134897L
L1199863689L
L2642321189L
L3038696831L
L628992411L
L4200943268L
L2352169576L
L1864196627L
L71109718L
L1444716136L
L1238399615L
L3187482842L
L951341397L
L4109117821L
L1885899226L
L1956949440L
L87320599L
L1491087493L
L3115988080L
L66013202L
L395770750L
L108946456L
L2950507120L
L1731145174L
L392874740L
L2453360542L
L2977522083L
L858783319L
L661197217L
L2646615838L
L4285654113L
L1701792568L
L3708690444L
L1336721340L
L2734325597L
L4226861718L
L3373528985L
L1794324446L
L1621849291L
L3204424817L
L1354593216L
L2002599606L
L458859737L
L4281350500L
L3673645882L
L3533425265L
L3561932226L
L4255574785L
L1131184363L
L2015952233L
L713242775L
L1828405877L
L1978886005L
L3484442864L
L2785137790L
L287550786L
L3638759669L
L14276080L
L1025091176L
L4239413916L
L781618131L
L3220148252L
L3082781949L
L1760159876L
L3570110292L
L2554028605L
L936291328L
L1594867374L
L1701130454L
L1939396301L
L1247847634L
L579634140L
L2662183185L
L1877162842L
L505020754L
L25587888L
L1482816243L
L462419789L
L1254284119L
L3828172353L
L3870241807L
L2886640607L
L4269478929L
L3459199467L
L1464744542L
L731688835L
L2208101022L
L3670839519L
L4152778837L
L2786480731L
L4044308884L
L3107326834L
L283744040L
L2742343051L
L742763847L
L1637943678L
L3378572085L
L2633150552L
L4056547487L
L1199152528L
L2206776384L
L85395479L
L1523412177L
L3804551161L
L2037392142L
L4017626810L
L386825925L
L2444562936L
L2113892066L
L1300618536L
L1013156525L
L2294374304L
L3215483148L
L1424694454L
L81919036L
L2935313192L
L1842948480L
L1501692354L
L2772112024L
L2378515750L
L1619823214L
L2142545554L
L1527832809L
L2756334816L
L727093749L
L3822353404L
L3398498422L
L3196910791L
L4028002933L
L629955087L
L1179618004L
L2694513616L
L3459541230L
L3574035920L
L271579266L
L3010987997L
L3681097188L
L852585531L
L285561339L
L2258732730L
L2744961004L
L3422063323L
L2786432512L
L1605293839L
L82386435L
L4135504223L
L4003613419L
L472390754L
L492618020L
L2996425932L
L3677701577L
L63174386L
L878887905L
L907546196L
L619127372L
L4275043898L
L1486351694L
L2703109477L
L28829403L
L3773333547L
L665277849L
L1058857393L
L2693242636L
L1688775407L
L568129314L
L1009518502L
L468L
tNtp17
sS'torch'
p18
ctorch._utils
_rebuild_tensor
p19
(ctorch
ByteStorage
p20
((lp21
I0
aI0
aI0
aI0
aI0
aI0
aI0
aI0
aI57
aI1
aI0
aI0
aI1
aI0
aI0
aI0
aI56
aI1
aI0
aI0
aI0
aI0
aI0
aI0
aI65
aI165
aI201
aI72
aI0
aI0
aI0
aI0
aI162
aI248
aI105
aI38
aI0
aI0
aI0
aI0
aI54
aI215
aI44
aI249
aI0
aI0
aI0
aI0
aI85
aI6
aI80
aI84
aI0
aI0
aI0
aI0
aI194
aI5
aI67
aI114
aI0
aI0
aI0
aI0
aI184
aI36
aI214
aI188
aI0
aI0
aI0
aI0
aI62
aI112
aI241
aI204
aI0
aI0
aI0
aI0
aI44
aI54
aI218
aI123
aI0
aI0
aI0
aI0
aI231
aI195
aI216
aI172
aI0
aI0
aI0
aI0
aI211
aI86
aI42
aI174
aI0
aI0
aI0
aI0
aI218
aI191
aI188
aI253
aI0
aI0
aI0
aI0
aI145
aI67
aI48
aI250
aI0
aI0
aI0
aI0
aI220
aI29
aI195
aI92
aI0
aI0
aI0
aI0
aI106
aI58
aI176
aI39
aI0
aI0
aI0
aI0
aI61
aI107
aI70
aI206
aI0
aI0
aI0
aI0
aI147
aI182
aI131
aI6
aI0
aI0
aI0
aI0
aI109
aI231
aI237
aI43
aI0
aI0
aI0
aI0
aI186
aI63
aI195
aI117
aI0
aI0
aI0
aI0
aI167
aI59
aI105
aI96
aI0
aI0
aI0
aI0
aI207
aI131
aI139
aI116
aI0
aI0
aI0
aI0
aI141
aI207
aI71
aI86
aI0
aI0
aI0
aI0
aI222
aI2
aI21
aI102
aI0
aI0
aI0
aI0
aI89
aI188
aI207
aI156
aI0
aI0
aI0
aI0
aI105
aI77
aI22
aI112
aI0
aI0
aI0
aI0
aI189
aI158
aI223
aI61
aI0
aI0
aI0
aI0
aI40
aI37
aI86
aI189
aI0
aI0
aI0
aI0
aI183
aI9
aI164
aI52
aI0
aI0
aI0
aI0
aI187
aI19
aI84
aI172
aI0
aI0
aI0
aI0
aI81
aI83
aI67
aI17
aI0
aI0
aI0
aI0
aI215
aI129
aI33
aI184
aI0
aI0
aI0
aI0
aI251
aI175
aI68
aI135
aI0
aI0
aI0
aI0
aI198
aI37
aI34
aI1
aI0
aI0
aI0
aI0
aI19
aI186
aI172
aI74
aI0
aI0
aI0
aI0
aI231
aI146
aI163
aI135
aI0
aI0
aI0
aI0
aI30
aI65
aI46
aI65
aI0
aI0
aI0
aI0
aI237
aI250
aI192
aI164
aI0
aI0
aI0
aI0
aI137
aI106
aI219
aI119
aI0
aI0
aI0
aI0
aI0
aI60
aI125
aI152
aI0
aI0
aI0
aI0
aI167
aI246
aI77
aI58
aI0
aI0
aI0
aI0
aI71
aI163
aI33
aI95
aI0
aI0
aI0
aI0
aI207
aI142
aI238
aI205
aI0
aI0
aI0
aI0
aI103
aI20
aI45
aI203
aI0
aI0
aI0
aI0
aI165
aI155
aI250
aI224
aI0
aI0
aI0
aI0
aI122
aI57
aI249
aI78
aI0
aI0
aI0
aI0
aI160
aI45
aI72
aI191
aI0
aI0
aI0
aI0
aI113
aI29
aI245
aI14
aI0
aI0
aI0
aI0
aI52
aI159
aI216
aI76
aI0
aI0
aI0
aI0
aI112
aI105
aI214
aI209
aI0
aI0
aI0
aI0
aI88
aI112
aI92
aI13
aI0
aI0
aI0
aI0
aI215
aI216
aI244
aI99
aI0
aI0
aI0
aI0
aI244
aI48
aI201
aI8
aI0
aI0
aI0
aI0
aI40
aI119
aI73
aI65
aI0
aI0
aI0
aI0
aI102
aI242
aI200
aI50
aI0
aI0
aI0
aI0
aI90
aI31
aI86
aI144
aI0
aI0
aI0
aI0
aI144
aI38
aI195
aI254
aI0
aI0
aI0
aI0
aI197
aI122
aI142
aI77
aI0
aI0
aI0
aI0
aI59
aI140
aI124
aI101
aI0
aI0
aI0
aI0
aI39
aI162
aI61
aI37
aI0
aI0
aI0
aI0
aI244
aI179
aI163
aI203
aI0
aI0
aI0
aI0
aI196
aI130
aI47
aI84
aI0
aI0
aI0
aI0
aI248
aI89
aI160
aI191
aI0
aI0
aI0
aI0
aI62
aI79
aI39
aI213
aI0
aI0
aI0
aI0
aI163
aI204
aI26
aI173
aI0
aI0
aI0
aI0
aI148
aI124
aI8
aI148
aI0
aI0
aI0
aI0
aI226
aI201
aI161
aI184
aI0
aI0
aI0
aI0
aI35
aI226
aI39
aI123
aI0
aI0
aI0
aI0
aI203
aI100
aI171
aI224
aI0
aI0
aI0
aI0
aI188
aI157
aI63
aI235
aI0
aI0
aI0
aI0
aI74
aI1
aI18
aI156
aI0
aI0
aI0
aI0
aI176
aI164
aI252
aI66
aI0
aI0
aI0
aI0
aI38
aI199
aI32
aI130
aI0
aI0
aI0
aI0
aI19
aI10
aI0
aI225
aI0
aI0
aI0
aI0
aI27
aI186
aI32
aI36
aI0
aI0
aI0
aI0
aI188
aI61
aI24
aI233
aI0
aI0
aI0
aI0
aI126
aI198
aI188
aI91
aI0
aI0
aI0
aI0
aI210
aI173
aI152
aI36
aI0
aI0
aI0
aI0
aI107
aI149
aI10
aI109
aI0
aI0
aI0
aI0
aI245
aI218
aI37
aI196
aI0
aI0
aI0
aI0
aI161
aI76
aI214
aI217
aI0
aI0
aI0
aI0
aI11
aI161
aI166
aI162
aI0
aI0
aI0
aI0
aI252
aI66
aI36
aI152
aI0
aI0
aI0
aI0
aI13
aI143
aI23
aI219
aI0
aI0
aI0
aI0
aI88
aI191
aI86
aI170
aI0
aI0
aI0
aI0
aI203
aI186
aI190
aI214
aI0
aI0
aI0
aI0
aI133
aI236
aI154
aI207
aI0
aI0
aI0
aI0
aI249
aI95
aI232
aI78
aI0
aI0
aI0
aI0
aI175
aI10
aI202
aI66
aI0
aI0
aI0
aI0
aI200
aI187
aI130
aI113
aI0
aI0
aI0
aI0
aI26
aI244
aI9
aI112
aI0
aI0
aI0
aI0
aI37
aI59
aI103
aI142
aI0
aI0
aI0
aI0
aI149
aI248
aI168
aI111
aI0
aI0
aI0
aI0
aI244
aI185
aI217
aI52
aI0
aI0
aI0
aI0
aI187
aI24
aI140
aI106
aI0
aI0
aI0
aI0
aI218
aI212
aI137
aI223
aI0
aI0
aI0
aI0
aI102
aI224
aI196
aI205
aI0
aI0
aI0
aI0
aI50
aI123
aI188
aI14
aI0
aI0
aI0
aI0
aI175
aI117
aI227
aI93
aI0
aI0
aI0
aI0
aI25
aI12
aI177
aI241
aI0
aI0
aI0
aI0
aI215
aI164
aI227
aI231
aI0
aI0
aI0
aI0
aI228
aI190
aI123
aI42
aI0
aI0
aI0
aI0
aI123
aI145
aI140
aI44
aI0
aI0
aI0
aI0
aI45
aI114
aI94
aI140
aI0
aI0
aI0
aI0
aI217
aI3
aI122
aI175
aI0
aI0
aI0
aI0
aI182
aI196
aI154
aI143
aI0
aI0
aI0
aI0
aI206
aI91
aI246
aI19
aI0
aI0
aI0
aI0
aI70
aI233
aI88
aI61
aI0
aI0
aI0
aI0
aI90
aI194
aI190
aI21
aI0
aI0
aI0
aI0
aI141
aI91
aI180
aI37
aI0
aI0
aI0
aI0
aI110
aI77
aI49
aI9
aI0
aI0
aI0
aI0
aI193
aI102
aI4
aI183
aI0
aI0
aI0
aI0
aI255
aI14
aI116
aI87
aI0
aI0
aI0
aI0
aI192
aI111
aI198
aI59
aI0
aI0
aI0
aI0
aI25
aI37
aI38
aI67
aI0
aI0
aI0
aI0
aI232
aI22
aI100
aI98
aI0
aI0
aI0
aI0
aI74
aI218
aI195
aI24
aI0
aI0
aI0
aI0
aI177
aI250
aI161
aI194
aI0
aI0
aI0
aI0
aI124
aI115
aI96
aI182
aI0
aI0
aI0
aI0
aI218
aI157
aI102
aI95
aI0
aI0
aI0
aI0
aI136
aI212
aI253
aI221
aI0
aI0
aI0
aI0
aI215
aI198
aI92
aI129
aI0
aI0
aI0
aI0
aI47
aI40
aI198
aI184
aI0
aI0
aI0
aI0
aI147
aI108
aI80
aI227
aI0
aI0
aI0
aI0
aI13
aI70
aI227
aI120
aI0
aI0
aI0
aI0
aI224
aI203
aI204
aI97
aI0
aI0
aI0
aI0
aI232
aI147
aI246
aI242
aI0
aI0
aI0
aI0
aI39
aI212
aI176
aI18
aI0
aI0
aI0
aI0
aI220
aI12
aI57
aI188
aI0
aI0
aI0
aI0
aI201
aI43
aI136
aI17
aI0
aI0
aI0
aI0
aI106
aI125
aI215
aI11
aI0
aI0
aI0
aI0
aI114
aI47
aI35
aI136
aI0
aI0
aI0
aI0
aI42
aI96
aI170
aI223
aI0
aI0
aI0
aI0
aI62
aI39
aI255
aI218
aI0
aI0
aI0
aI0
aI45
aI218
aI33
aI97
aI0
aI0
aI0
aI0
aI165
aI233
aI241
aI216
aI0
aI0
aI0
aI0
aI254
aI235
aI94
aI200
aI0
aI0
aI0
aI0
aI245
aI174
aI174
aI113
aI0
aI0
aI0
aI0
aI118
aI110
aI61
aI17
aI0
aI0
aI0
aI0
aI118
aI248
aI191
aI52
aI0
aI0
aI0
aI0
aI79
aI36
aI200
aI208
aI0
aI0
aI0
aI0
aI189
aI220
aI220
aI186
aI0
aI0
aI0
aI0
aI135
aI135
aI219
aI71
aI0
aI0
aI0
aI0
aI200
aI50
aI88
aI210
aI0
aI0
aI0
aI0
aI66
aI57
aI22
aI140
aI0
aI0
aI0
aI0
aI195
aI190
aI142
aI75
aI0
aI0
aI0
aI0
aI93
aI52
aI116
aI176
aI0
aI0
aI0
aI0
aI60
aI93
aI187
aI24
aI0
aI0
aI0
aI0
aI93
aI14
aI5
aI163
aI0
aI0
aI0
aI0
aI247
aI90
aI106
aI42
aI0
aI0
aI0
aI0
aI105
aI164
aI97
aI75
aI0
aI0
aI0
aI0
aI153
aI47
aI31
aI200
aI0
aI0
aI0
aI0
aI132
aI202
aI40
aI116
aI0
aI0
aI0
aI0
aI195
aI74
aI17
aI112
aI0
aI0
aI0
aI0
aI72
aI12
aI16
aI120
aI0
aI0
aI0
aI0
aI117
aI253
aI41
aI209
aI0
aI0
aI0
aI0
aI130
aI130
aI175
aI215
aI0
aI0
aI0
aI0
aI234
aI205
aI231
aI133
aI0
aI0
aI0
aI0
aI19
aI20
aI165
aI20
aI0
aI0
aI0
aI0
aI76
aI10
aI89
aI212
aI0
aI0
aI0
aI0
aI25
aI188
aI12
aI12
aI0
aI0
aI0
aI0
aI86
aI180
aI146
aI7
aI0
aI0
aI0
aI0
aI78
aI159
aI140
aI152
aI0
aI0
aI0
aI0
aI176
aI235
aI17
aI70
aI0
aI0
aI0
aI0
aI84
aI212
aI200
aI213
aI0
aI0
aI0
aI0
aI89
aI254
aI82
aI254
aI0
aI0
aI0
aI0
aI79
aI225
aI123
aI92
aI0
aI0
aI0
aI0
aI146
aI245
aI190
aI136
aI0
aI0
aI0
aI0
aI250
aI55
aI29
aI64
aI0
aI0
aI0
aI0
aI135
aI221
aI1
aI61
aI0
aI0
aI0
aI0
aI203
aI180
aI165
aI133
aI0
aI0
aI0
aI0
aI181
aI243
aI213
aI252
aI0
aI0
aI0
aI0
aI225
aI191
aI73
aI136
aI0
aI0
aI0
aI0
aI172
aI71
aI25
aI142
aI0
aI0
aI0
aI0
aI220
aI134
aI178
aI231
aI0
aI0
aI0
aI0
aI104
aI233
aI179
aI74
aI0
aI0
aI0
aI0
aI77
aI243
aI196
aI95
aI0
aI0
aI0
aI0
aI46
aI27
aI198
aI29
aI0
aI0
aI0
aI0
aI134
aI94
aI235
aI1
aI0
aI0
aI0
aI0
aI250
aI199
aI216
aI83
aI0
aI0
aI0
aI0
aI70
aI224
aI99
aI164
aI0
aI0
aI0
aI0
aI229
aI39
aI181
aI159
aI0
aI0
aI0
aI0
aI67
aI225
aI156
aI104
aI0
aI0
aI0
aI0
aI221
aI232
aI85
aI153
aI0
aI0
aI0
aI0
aI161
aI31
aI107
aI8
aI0
aI0
aI0
aI0
aI133
aI166
aI63
aI247
aI0
aI0
aI0
aI0
aI157
aI153
aI164
aI102
aI0
aI0
aI0
aI0
aI167
aI155
aI221
aI126
aI0
aI0
aI0
aI0
aI16
aI150
aI196
aI50
aI0
aI0
aI0
aI0
aI255
aI214
aI29
aI184
aI0
aI0
aI0
aI0
aI141
aI122
aI224
aI145
aI0
aI0
aI0
aI0
aI163
aI122
aI213
aI212
aI0
aI0
aI0
aI0
aI149
aI136
aI243
aI181
aI0
aI0
aI0
aI0
aI178
aI223
aI178
aI8
aI0
aI0
aI0
aI0
aI122
aI150
aI52
aI73
aI0
aI0
aI0
aI0
aI116
aI235
aI55
aI154
aI0
aI0
aI0
aI0
aI173
aI185
aI163
aI33
aI0
aI0
aI0
aI0
aI242
aI95
aI182
aI110
aI0
aI0
aI0
aI0
aI211
aI17
aI73
aI62
aI0
aI0
aI0
aI0
aI90
aI50
aI86
aI34
aI0
aI0
aI0
aI0
aI39
aI42
aI90
aI64
aI0
aI0
aI0
aI0
aI177
aI29
aI186
aI30
aI0
aI0
aI0
aI0
aI113
aI22
aI174
aI244
aI0
aI0
aI0
aI0
aI40
aI223
aI90
aI190
aI0
aI0
aI0
aI0
aI159
aI107
aI220
aI107
aI0
aI0
aI0
aI0
aI200
aI128
aI254
aI99
aI0
aI0
aI0
aI0
aI144
aI237
aI224
aI52
aI0
aI0
aI0
aI0
aI228
aI231
aI99
aI71
aI0
aI0
aI0
aI0
aI206
aI238
aI116
aI26
aI0
aI0
aI0
aI0
aI47
aI60
aI106
aI188
aI0
aI0
aI0
aI0
aI235
aI253
aI128
aI41
aI0
aI0
aI0
aI0
aI22
aI131
aI131
aI15
aI0
aI0
aI0
aI0
aI113
aI179
aI231
aI85
aI0
aI0
aI0
aI0
aI30
aI90
aI132
aI199
aI0
aI0
aI0
aI0
aI87
aI129
aI13
aI167
aI0
aI0
aI0
aI0
aI210
aI156
aI252
aI46
aI0
aI0
aI0
aI0
aI107
aI56
aI91
aI159
aI0
aI0
aI0
aI0
aI226
aI106
aI175
aI189
aI0
aI0
aI0
aI0
aI1
aI161
aI107
aI132
aI0
aI0
aI0
aI0
aI174
aI242
aI148
aI191
aI0
aI0
aI0
aI0
aI2
aI59
aI186
aI135
aI0
aI0
aI0
aI0
aI108
aI35
aI33
aI188
aI0
aI0
aI0
aI0
aI228
aI10
aI197
aI217
aI0
aI0
aI0
aI0
aI2
aI230
aI150
aI217
aI0
aI0
aI0
aI0
aI249
aI154
aI114
aI224
aI0
aI0
aI0
aI0
aI201
aI181
aI215
aI120
aI0
aI0
aI0
aI0
aI28
aI106
aI39
aI96
aI0
aI0
aI0
aI0
aI211
aI21
aI249
aI139
aI0
aI0
aI0
aI0
aI173
aI221
aI198
aI15
aI0
aI0
aI0
aI0
aI251
aI254
aI248
aI117
aI0
aI0
aI0
aI0
aI94
aI6
aI19
aI241
aI0
aI0
aI0
aI0
aI99
aI212
aI179
aI68
aI0
aI0
aI0
aI0
aI223
aI225
aI125
aI233
aI0
aI0
aI0
aI0
aI195
aI68
aI64
aI183
aI0
aI0
aI0
aI0
aI176
aI110
aI123
aI27
aI0
aI0
aI0
aI0
aI93
aI6
aI244
aI14
aI0
aI0
aI0
aI0
aI192
aI166
aI148
aI218
aI0
aI0
aI0
aI0
aI17
aI66
aI120
aI140
aI0
aI0
aI0
aI0
aI223
aI102
aI79
aI1
aI0
aI0
aI0
aI0
aI50
aI184
aI212
aI206
aI0
aI0
aI0
aI0
aI75
aI41
aI218
aI69
aI0
aI0
aI0
aI0
aI154
aI150
aI248
aI212
aI0
aI0
aI0
aI0
aI54
aI245
aI121
aI5
aI0
aI0
aI0
aI0
aI235
aI228
aI233
aI92
aI0
aI0
aI0
aI0
aI219
aI67
aI239
aI135
aI0
aI0
aI0
aI0
aI30
aI32
aI149
aI69
aI0
aI0
aI0
aI0
aI52
aI52
aI19
aI144
aI0
aI0
aI0
aI0
aI153
aI11
aI251
aI248
aI0
aI0
aI0
aI0
aI25
aI45
aI255
aI100
aI0
aI0
aI0
aI0
aI224
aI8
aI158
aI251
aI0
aI0
aI0
aI0
aI225
aI70
aI252
aI196
aI0
aI0
aI0
aI0
aI123
aI166
aI204
aI192
aI0
aI0
aI0
aI0
aI122
aI73
aI85
aI21
aI0
aI0
aI0
aI0
aI70
aI187
aI100
aI145
aI0
aI0
aI0
aI0
aI1
aI152
aI167
aI177
aI0
aI0
aI0
aI0
aI220
aI150
aI12
aI247
aI0
aI0
aI0
aI0
aI230
aI152
aI169
aI104
aI0
aI0
aI0
aI0
aI89
aI65
aI162
aI219
aI0
aI0
aI0
aI0
aI199
aI75
aI116
aI126
aI0
aI0
aI0
aI0
aI15
aI86
aI211
aI164
aI0
aI0
aI0
aI0
aI184
aI165
aI53
aI189
aI0
aI0
aI0
aI0
aI55
aI189
aI60
aI159
aI0
aI0
aI0
aI0
aI169
aI53
aI89
aI172
aI0
aI0
aI0
aI0
aI214
aI173
aI83
aI216
aI0
aI0
aI0
aI0
aI177
aI102
aI180
aI211
aI0
aI0
aI0
aI0
aI85
aI205
aI139
aI16
aI0
aI0
aI0
aI0
aI197
aI234
aI127
aI182
aI0
aI0
aI0
aI0
aI235
aI34
aI200
aI224
aI0
aI0
aI0
aI0
aI166
aI143
aI91
aI118
aI0
aI0
aI0
aI0
aI138
aI109
aI192
aI197
aI0
aI0
aI0
aI0
aI37
aI28
aI237
aI16
aI0
aI0
aI0
aI0
aI169
aI95
aI157
aI29
aI0
aI0
aI0
aI0
aI173
aI159
aI237
aI31
aI0
aI0
aI0
aI0
aI59
aI117
aI240
aI99
aI0
aI0
aI0
aI0
aI126
aI48
aI136
aI159
aI0
aI0
aI0
aI0
aI230
aI161
aI241
aI118
aI0
aI0
aI0
aI0
aI62
aI137
aI90
aI255
aI0
aI0
aI0
aI0
aI203
aI156
aI140
aI254
aI0
aI0
aI0
aI0
aI172
aI220
aI51
aI239
aI0
aI0
aI0
aI0
aI191
aI205
aI52
aI110
aI0
aI0
aI0
aI0
aI162
aI228
aI82
aI72
aI0
aI0
aI0
aI0
aI163
aI101
aI29
aI123
aI0
aI0
aI0
aI0
aI37
aI63
aI214
aI115
aI0
aI0
aI0
aI0
aI175
aI38
aI112
aI216
aI0
aI0
aI0
aI0
aI179
aI97
aI32
aI0
aI0
aI0
aI0
aI0
aI12
aI237
aI171
aI38
aI0
aI0
aI0
aI0
aI156
aI65
aI83
aI219
aI0
aI0
aI0
aI0
aI52
aI186
aI150
aI69
aI0
aI0
aI0
aI0
aI16
aI245
aI26
aI98
aI0
aI0
aI0
aI0
aI108
aI190
aI85
aI190
aI0
aI0
aI0
aI0
aI63
aI13
aI172
aI140
aI0
aI0
aI0
aI0
aI203
aI154
aI108
aI28
aI0
aI0
aI0
aI0
aI7
aI211
aI220
aI58
aI0
aI0
aI0
aI0
aI52
aI183
aI45
aI31
aI0
aI0
aI0
aI0
aI148
aI76
aI200
aI248
aI0
aI0
aI0
aI0
aI116
aI54
aI152
aI244
aI0
aI0
aI0
aI0
aI75
aI199
aI102
aI111
aI0
aI0
aI0
aI0
aI135
aI52
aI159
aI174
aI0
aI0
aI0
aI0
aI172
aI249
aI103
aI74
aI0
aI0
aI0
aI0
aI144
aI0
aI31
aI205
aI0
aI0
aI0
aI0
aI51
aI152
aI171
aI153
aI0
aI0
aI0
aI0
aI158
aI43
aI101
aI8
aI0
aI0
aI0
aI0
aI28
aI85
aI129
aI72
aI0
aI0
aI0
aI0
aI144
aI242
aI148
aI30
aI0
aI0
aI0
aI0
aI209
aI131
aI184
aI175
aI0
aI0
aI0
aI0
aI62
aI7
aI62
aI0
aI0
aI0
aI0
aI0
aI94
aI201
aI178
aI190
aI0
aI0
aI0
aI0
aI232
aI112
aI155
aI75
aI0
aI0
aI0
aI0
aI65
aI184
aI48
aI33
aI0
aI0
aI0
aI0
aI100
aI85
aI36
aI175
aI0
aI0
aI0
aI0
aI150
aI148
aI86
aI96
aI0
aI0
aI0
aI0
aI231
aI154
aI151
aI133
aI0
aI0
aI0
aI0
aI25
aI129
aI107
aI34
aI0
aI0
aI0
aI0
aI173
aI152
aI240
aI254
aI0
aI0
aI0
aI0
aI178
aI37
aI31
aI56
aI0
aI0
aI0
aI0
aI132
aI199
aI61
aI235
aI0
aI0
aI0
aI0
aI80
aI96
aI66
aI133
aI0
aI0
aI0
aI0
aI254
aI216
aI57
aI163
aI0
aI0
aI0
aI0
aI251
aI48
aI210
aI168
aI0
aI0
aI0
aI0
aI40
aI106
aI132
aI55
aI0
aI0
aI0
aI0
aI104
aI31
aI4
aI189
aI0
aI0
aI0
aI0
aI191
aI111
aI69
aI71
aI0
aI0
aI0
aI0
aI156
aI98
aI64
aI213
aI0
aI0
aI0
aI0
aI44
aI47
aI53
aI149
aI0
aI0
aI0
aI0
aI15
aI217
aI241
aI105
aI0
aI0
aI0
aI0
aI105
aI85
aI242
aI38
aI0
aI0
aI0
aI0
aI50
aI117
aI200
aI240
aI0
aI0
aI0
aI0
aI215
aI246
aI113
aI241
aI0
aI0
aI0
aI0
aI230
aI189
aI121
aI49
aI0
aI0
aI0
aI0
aI20
aI31
aI153
aI8
aI0
aI0
aI0
aI0
aI121
aI238
aI124
aI216
aI0
aI0
aI0
aI0
aI235
aI24
aI134
aI165
aI0
aI0
aI0
aI0
aI152
aI67
aI1
aI253
aI0
aI0
aI0
aI0
aI242
aI49
aI97
aI190
aI0
aI0
aI0
aI0
aI6
aI52
aI168
aI48
aI0
aI0
aI0
aI0
aI11
aI239
aI240
aI115
aI0
aI0
aI0
aI0
aI131
aI249
aI224
aI137
aI0
aI0
aI0
aI0
aI189
aI55
aI55
aI119
aI0
aI0
aI0
aI0
aI199
aI105
aI7
aI161
aI0
aI0
aI0
aI0
aI238
aI18
aI233
aI249
aI0
aI0
aI0
aI0
aI130
aI58
aI50
aI89
aI0
aI0
aI0
aI0
aI143
aI114
aI94
aI178
aI0
aI0
aI0
aI0
aI117
aI97
aI106
aI128
aI0
aI0
aI0
aI0
aI202
aI207
aI75
aI203
aI0
aI0
aI0
aI0
aI44
aI233
aI158
aI243
aI0
aI0
aI0
aI0
aI106
aI34
aI204
aI180
aI0
aI0
aI0
aI0
aI92
aI148
aI224
aI61
aI0
aI0
aI0
aI0
aI228
aI39
aI78
aI123
aI0
aI0
aI0
aI0
aI228
aI229
aI95
aI106
aI0
aI0
aI0
aI0
aI192
aI84
aI77
aI7
aI0
aI0
aI0
aI0
aI235
aI120
aI47
aI37
aI0
aI0
aI0
aI0
aI9
aI200
aI182
aI45
aI0
aI0
aI0
aI0
aI225
aI170
aI75
aI163
aI0
aI0
aI0
aI0
aI162
aI49
aI106
aI101
aI0
aI0
aI0
aI0
aI105
aI68
aI173
aI117
aI0
aI0
aI0
aI0
aI98
aI207
aI194
aI210
aI0
aI0
aI0
aI0
aI27
aI217
aI37
aI24
aI0
aI0
aI0
aI0
aI123
aI71
aI25
aI229
aI0
aI0
aI0
aI0
aI38
aI2
aI151
aI39
aI0
aI0
aI0
aI0
aI55
aI254
aI234
aI170
aI0
aI0
aI0
aI0
aI102
aI248
aI78
aI122
aI0
aI0
aI0
aI0
aI73
aI127
aI165
aI28
aI0
aI0
aI0
aI0
aI2
aI8
aI40
aI70
aI0
aI0
aI0
aI0
aI235
aI191
aI2
aI174
aI0
aI0
aI0
aI0
aI246
aI219
aI218
aI61
aI0
aI0
aI0
aI0
aI74
aI166
aI182
aI51
aI0
aI0
aI0
aI0
aI2
aI130
aI215
aI140
aI0
aI0
aI0
aI0
aI175
aI103
aI16
aI166
aI0
aI0
aI0
aI0
aI190
aI58
aI208
aI223
aI0
aI0
aI0
aI0
aI108
aI211
aI30
aI147
aI0
aI0
aI0
aI0
aI209
aI127
aI0
aI146
aI0
aI0
aI0
aI0
aI222
aI183
aI157
aI200
aI0
aI0
aI0
aI0
aI221
aI54
aI46
aI104
aI0
aI0
aI0
aI0
aI218
aI193
aI127
aI38
aI0
aI0
aI0
aI0
aI17
aI222
aI134
aI76
aI0
aI0
aI0
aI0
aI79
aI25
aI113
aI145
aI0
aI0
aI0
aI0
aI65
aI110
aI46
aI56
aI0
aI0
aI0
aI0
aI94
aI118
aI58
aI1
aI0
aI0
aI0
aI0
aI228
aI181
aI55
aI52
aI0
aI0
aI0
aI0
aI116
aI126
aI139
aI84
aI0
aI0
aI0
aI0
aI68
aI93
aI252
aI38
aI0
aI0
aI0
aI0
aI164
aI182
aI105
aI178
aI0
aI0
aI0
aI0
aI171
aI126
aI19
aI186
aI0
aI0
aI0
aI0
aI194
aI160
aI95
aI83
aI0
aI0
aI0
aI0
aI103
aI194
aI100
aI237
aI0
aI0
aI0
aI0
aI186
aI14
aI151
aI114
aI0
aI0
aI0
aI0
aI132
aI224
aI144
aI130
aI0
aI0
aI0
aI0
aI167
aI18
aI92
aI114
aI0
aI0
aI0
aI0
aI231
aI16
aI33
aI17
aI0
aI0
aI0
aI0
aI50
aI113
aI204
aI23
aI0
aI0
aI0
aI0
aI217
aI251
aI21
aI176
aI0
aI0
aI0
aI0
aI154
aI220
aI78
aI217
aI0
aI0
aI0
aI0
aI66
aI225
aI124
aI90
aI0
aI0
aI0
aI0
aI29
aI131
aI233
aI111
aI0
aI0
aI0
aI0
aI12
aI66
aI153
aI107
aI0
aI0
aI0
aI0
aI173
aI135
aI252
aI235
aI0
aI0
aI0
aI0
aI48
aI136
aI70
aI145
aI0
aI0
aI0
aI0
aI147
aI43
aI177
aI70
aI0
aI0
aI0
aI0
aI184
aI34
aI74
aI46
aI0
aI0
aI0
aI0
aI45
aI250
aI161
aI211
aI0
aI0
aI0
aI0
aI65
aI41
aI85
aI70
aI0
aI0
aI0
aI0
aI30
aI58
aI106
aI176
aI0
aI0
aI0
aI0
aI241
aI44
aI75
aI188
aI0
aI0
aI0
aI0
aI230
aI185
aI61
aI243
aI0
aI0
aI0
aI0
aI251
aI44
aI15
aI157
aI0
aI0
aI0
aI0
aI46
aI195
aI214
aI230
aI0
aI0
aI0
aI0
aI157
aI235
aI82
aI220
aI0
aI0
aI0
aI0
aI0
aI177
aI10
aI251
aI0
aI0
aI0
aI0
aI116
aI113
aI86
aI163
aI0
aI0
aI0
aI0
aI146
aI56
aI80
aI21
aI0
aI0
aI0
aI0
aI117
aI127
aI113
aI84
aI0
aI0
aI0
aI0
aI95
aI88
aI237
aI118
aI0
aI0
aI0
aI0
aI5
aI1
aI115
aI185
aI0
aI0
aI0
aI0
aI58
aI51
aI20
aI253
aI0
aI0
aI0
aI0
aI228
aI81
aI235
aI32
aI0
aI0
aI0
aI0
aI169
aI247
aI75
aI181
aI0
aI0
aI0
aI0
aI6
aI36
aI125
aI86
aI0
aI0
aI0
aI0
aI36
aI78
aI23
aI18
aI0
aI0
aI0
aI0
aI115
aI171
aI166
aI250
aI0
aI0
aI0
aI0
aI119
aI30
aI209
aI139
aI0
aI0
aI0
aI0
aI4
aI234
aI197
aI129
aI0
aI0
aI0
aI0
aI188
aI180
aI207
aI186
aI0
aI0
aI0
aI0
aI43
aI254
aI105
aI162
aI0
aI0
aI0
aI0
aI106
aI214
aI71
aI252
aI0
aI0
aI0
aI0
aI33
aI142
aI233
aI168
aI0
aI0
aI0
aI0
aI58
aI230
aI229
aI94
aI0
aI0
aI0
aI0
aI145
aI254
aI83
aI155
aI0
aI0
aI0
aI0
aI243
aI119
aI143
aI124
aI0
aI0
aI0
aI0
aI83
aI4
aI23
aI59
aI0
aI0
aI0
aI0
aI143
aI75
aI248
aI236
aI0
aI0
aI0
aI0
aI133
aI154
aI173
aI154
aI0
aI0
aI0
aI0
aI241
aI68
aI250
aI195
aI0
aI0
aI0
aI0
aI228
aI225
aI95
aI26
aI0
aI0
aI0
aI0
aI215
aI159
aI69
aI13
aI0
aI0
aI0
aI0
aI145
aI193
aI248
aI82
aI0
aI0
aI0
aI0
aI115
aI10
aI169
aI171
aI0
aI0
aI0
aI0
aI188
aI23
aI7
aI228
aI0
aI0
aI0
aI0
aI39
aI197
aI191
aI167
aI0
aI0
aI0
aI0
aI71
aI16
aI93
aI138
aI0
aI0
aI0
aI0
aI251
aI50
aI255
aI157
aI0
aI0
aI0
aI0
aI113
aI167
aI116
aI50
aI0
aI0
aI0
aI0
aI93
aI190
aI249
aI243
aI0
aI0
aI0
aI0
aI182
aI155
aI90
aI120
aI0
aI0
aI0
aI0
aI21
aI243
aI56
aI27
aI0
aI0
aI0
aI0
aI8
aI157
aI5
aI235
aI0
aI0
aI0
aI0
aI60
aI10
aI128
aI24
aI0
aI0
aI0
aI0
aI70
aI214
aI145
aI43
aI0
aI0
aI0
aI0
aI212
aI94
aI202
aI72
aI0
aI0
aI0
aI0
aI111
aI83
aI96
aI66
aI0
aI0
aI0
aI0
aI114
aI123
aI156
aI109
aI0
aI0
aI0
aI0
aI233
aI244
aI238
aI103
aI0
aI0
aI0
aI0
aI153
aI78
aI240
aI142
aI0
aI0
aI0
aI0
aI212
aI151
aI98
aI245
aI0
aI0
aI0
aI0
aI120
aI41
aI75
aI22
aI0
aI0
aI0
aI0
aI215
aI252
aI226
aI57
aI0
aI0
aI0
aI0
aI13
aI137
aI117
aI107
aI0
aI0
aI0
aI0
aI173
aI70
aI183
aI45
aI0
aI0
aI0
aI0
aI156
aI188
aI165
aI2
aI0
aI0
aI0
aI0
aI90
aI142
aI101
aI113
aI0
aI0
aI0
aI0
aI100
aI189
aI79
aI49
aI0
aI0
aI0
aI0
aI123
aI173
aI113
aI63
aI0
aI0
aI0
aI0
aI26
aI139
aI21
aI31
aI0
aI0
aI0
aI0
aI58
aI19
aI58
aI112
aI0
aI0
aI0
aI0
aI1
aI228
aI212
aI109
aI0
aI0
aI0
aI0
aI30
aI197
aI173
aI243
aI0
aI0
aI0
aI0
aI37
aI196
aI136
aI145
aI0
aI0
aI0
aI0
aI171
aI131
aI249
aI33
aI0
aI0
aI0
aI0
aI175
aI135
aI38
aI138
aI0
aI0
aI0
aI0
aI197
aI90
aI238
aI219
aI0
aI0
aI0
aI0
aI62
aI21
aI21
aI144
aI0
aI0
aI0
aI0
aI241
aI247
aI146
aI194
aI0
aI0
aI0
aI0
aI38
aI176
aI130
aI175
aI0
aI0
aI0
aI0
aI8
aI240
aI208
aI31
aI0
aI0
aI0
aI0
aI9
aI12
aI58
aI115
aI0
aI0
aI0
aI0
aI46
aI235
aI133
aI172
aI0
aI0
aI0
aI0
aI0
aI71
aI124
aI235
aI0
aI0
aI0
aI0
aI117
aI176
aI86
aI196
aI0
aI0
aI0
aI0
aI98
aI184
aI146
aI161
aI0
aI0
aI0
aI0
aI250
aI92
aI190
aI4
aI0
aI0
aI0
aI0
aI152
aI161
aI121
aI237
aI0
aI0
aI0
aI0
aI218
aI134
aI218
aI63
aI0
aI0
aI0
aI0
aI17
aI196
aI198
aI11
aI0
aI0
aI0
aI0
aI165
aI252
aI57
aI192
aI0
aI0
aI0
aI0
aI74
aI137
aI42
aI117
aI0
aI0
aI0
aI0
aI83
aI68
aI217
aI152
aI0
aI0
aI0
aI0
aI56
aI36
aI113
aI99
aI0
aI0
aI0
aI0
aI47
aI231
aI214
aI159
aI0
aI0
aI0
aI0
aI33
aI65
aI137
aI237
aI0
aI0
aI0
aI0
aI243
aI123
aI85
aI85
aI0
aI0
aI0
aI0
aI207
aI176
aI44
aI193
aI0
aI0
aI0
aI0
aI173
aI248
aI60
aI154
aI0
aI0
aI0
aI0
aI161
aI218
aI94
aI65
aI0
aI0
aI0
aI0
aI197
aI187
aI61
aI178
aI0
aI0
aI0
aI0
aI188
aI154
aI157
aI105
aI0
aI0
aI0
aI0
aI180
aI72
aI91
aI225
aI0
aI0
aI0
aI0
aI96
aI77
aI23
aI135
aI0
aI0
aI0
aI0
aI17
aI148
aI157
aI234
aI0
aI0
aI0
aI0
aI30
aI175
aI80
aI16
aI0
aI0
aI0
aI0
aI196
aI72
aI221
aI72
aI0
aI0
aI0
aI0
aI168
aI4
aI124
aI135
aI0
aI0
aI0
aI0
aI156
aI207
aI63
aI155
aI0
aI0
aI0
aI0
aI193
aI77
aI42
aI225
aI0
aI0
aI0
aI0
aI200
aI133
aI124
aI252
aI0
aI0
aI0
aI0
aI26
aI107
aI59
aI225
aI0
aI0
aI0
aI0
aI50
aI35
aI156
aI252
aI0
aI0
aI0
aI0
aI206
aI159
aI77
aI126
aI0
aI0
aI0
aI0
aI39
aI126
aI255
aI179
aI0
aI0
aI0
aI0
aI35
aI114
aI212
aI204
aI0
aI0
aI0
aI0
aI94
aI159
aI25
aI74
aI0
aI0
aI0
aI0
aI139
aI26
aI64
aI136
aI0
aI0
aI0
aI0
aI102
aI206
aI183
aI159
aI0
aI0
aI0
aI0
aI112
aI40
aI41
aI21
aI0
aI0
aI0
aI0
aI71
aI38
aI172
aI236
aI0
aI0
aI0
aI0
aI53
aI127
aI117
aI63
aI0
aI0
aI0
aI0
aI22
aI231
aI64
aI175
aI0
aI0
aI0
aI0
aI113
aI66
aI60
aI252
aI0
aI0
aI0
aI0
aI255
aI235
aI46
aI54
aI0
aI0
aI0
aI0
aI117
aI161
aI144
aI29
aI0
aI0
aI0
aI0
aI105
aI142
aI209
aI4
aI0
aI0
aI0
aI0
aI67
aI91
aI150
aI240
aI0
aI0
aI0
aI0
aI167
aI143
aI91
aI187
aI0
aI0
aI0
aI0
aI122
aI54
aI105
aI141
aI0
aI0
aI0
aI0
aI182
aI1
aI86
aI2
aI0
aI0
aI0
aI0
aI164
aI109
aI32
aI29
aI0
aI0
aI0
aI0
aI25
aI204
aI135
aI71
aI0
aI0
aI0
aI0
aI161
aI216
aI13
aI237
aI0
aI0
aI0
aI0
aI178
aI1
aI81
aI59
aI0
aI0
aI0
aI0
aI77
aI39
aI135
aI125
aI0
aI0
aI0
aI0
aI99
aI57
aI134
aI240
aI0
aI0
aI0
aI0
aI215
aI128
aI253
aI187
aI0
aI0
aI0
aI0
aI226
aI137
aI92
aI135
aI0
aI0
aI0
aI0
aI186
aI13
aI119
aI180
aI0
aI0
aI0
aI0
aI120
aI212
aI168
aI170
aI0
aI0
aI0
aI0
aI53
aI64
aI35
aI90
aI0
aI0
aI0
aI0
aI103
aI187
aI65
aI96
aI0
aI0
aI0
aI0
aI26
aI203
aI8
aI188
aI0
aI0
aI0
aI0
aI38
aI121
aI250
aI114
aI0
aI0
aI0
aI0
aI103
aI28
aI123
aI228
aI0
aI0
aI0
aI0
aI179
aI198
aI15
aI164
aI0
aI0
aI0
aI0
aI87
aI72
aI253
aI153
aI0
aI0
aI0
aI0
aI100
aI228
aI163
aI255
aI0
aI0
aI0
aI0
aI29
aI120
aI189
aI103
aI0
aI0
aI0
aI0
aI208
aI184
aI237
aI48
aI0
aI0
aI0
aI0
aI147
aI77
aI13
aI184
aI0
aI0
aI0
aI0
aI149
aI79
aI133
aI143
aI0
aI0
aI0
aI0
aI60
aI219
aI12
aI25
aI0
aI0
aI0
aI0
aI63
aI232
aI105
aI75
aI0
aI0
aI0
aI0
aI105
aI93
aI142
aI247
aI0
aI0
aI0
aI0
aI140
aI50
aI186
aI119
aI0
aI0
aI0
aI0
aI93
aI29
aI38
aI49
aI0
aI0
aI0
aI0
aI40
aI231
aI253
aI168
aI0
aI0
aI0
aI0
aI133
aI245
aI97
aI100
aI0
aI0
aI0
aI0
aI131
aI178
aI11
aI174
aI0
aI0
aI0
aI0
aI244
aI236
aI201
aI6
aI0
aI0
aI0
aI0
aI162
aI83
aI68
aI38
aI0
aI0
aI0
aI0
aI123
aI62
aI87
aI162
aI0
aI0
aI0
aI0
aI165
aI65
aI63
aI240
aI0
aI0
aI0
aI0
aI94
aI198
aI52
aI38
aI0
aI0
aI0
aI0
aI248
aI133
aI135
aI149
aI0
aI0
aI0
aI0
aI121
aI131
aI104
aI183
aI0
aI0
aI0
aI0
aI251
aI53
aI112
aI38
aI0
aI0
aI0
aI0
aI197
aI174
aI241
aI247
aI0
aI0
aI0
aI0
aI15
aI142
aI156
aI170
aI0
aI0
aI0
aI0
aI141
aI63
aI92
aI80
aI0
aI0
aI0
aI0
aI102
aI127
aI114
aI110
aI0
aI0
aI0
aI0
aI156
aI204
aI233
aI123
aI0
aI0
aI0
aI0
aI101
aI194
aI33
aI156
aI0
aI0
aI0
aI0
aI127
aI158
aI71
aI139
aI0
aI0
aI0
aI0
aI146
aI82
aI236
aI242
aI0
aI0
aI0
aI0
aI80
aI210
aI203
aI62
aI0
aI0
aI0
aI0
aI230
aI14
aI79
aI229
aI0
aI0
aI0
aI0
aI182
aI248
aI136
aI160
aI0
aI0
aI0
aI0
aI205
aI175
aI103
aI102
aI0
aI0
aI0
aI0
aI222
aI25
aI73
aI206
aI0
aI0
aI0
aI0
aI8
aI245
aI245
aI38
aI0
aI0
aI0
aI0
aI224
aI75
aI170
aI7
aI0
aI0
aI0
aI0
aI203
aI70
aI243
aI157
aI0
aI0
aI0
aI0
aI141
aI185
aI71
aI150
aI0
aI0
aI0
aI0
aI118
aI43
aI110
aI1
aI0
aI0
aI0
aI0
aI182
aI38
aI134
aI252
aI0
aI0
aI0
aI0
aI163
aI132
aI10
aI10
aI0
aI0
aI0
aI0
aI3
aI112
aI174
aI193
aI0
aI0
aI0
aI0
aI191
aI210
aI183
aI233
aI0
aI0
aI0
aI0
aI191
aI108
aI160
aI11
aI0
aI0
aI0
aI0
aI184
aI97
aI242
aI78
aI0
aI0
aI0
aI0
aI209
aI180
aI4
aI208
aI0
aI0
aI0
aI0
aI170
aI175
aI69
aI93
aI0
aI0
aI0
aI0
aI142
aI46
aI64
aI214
aI0
aI0
aI0
aI0
aI243
aI158
aI141
aI225
aI0
aI0
aI0
aI0
aI186
aI97
aI240
aI71
aI0
aI0
aI0
aI0
aI130
aI226
aI135
aI170
aI0
aI0
aI0
aI0
aI128
aI219
aI227
aI193
aI0
aI0
aI0
aI0
aI205
aI214
aI160
aI120
aI0
aI0
aI0
aI0
aI143
aI16
aI131
aI10
aI0
aI0
aI0
aI0
aI195
aI75
aI130
aI202
aI0
aI0
aI0
aI0
aI65
aI132
aI214
aI48
aI0
aI0
aI0
aI0
aI241
aI125
aI182
aI91
aI0
aI0
aI0
aI0
aI43
aI128
aI112
aI228
aI0
aI0
aI0
aI0
aI32
aI61
aI50
aI142
aI0
aI0
aI0
aI0
aI31
aI0
aI180
aI0
aI0
aI0
aI0
aI0
aI32
aI86
aI218
aI119
aI0
aI0
aI0
aI0
aI206
aI115
aI161
aI213
aI0
aI0
aI0
aI0
aI149
aI128
aI52
aI64
aI0
aI0
aI0
aI0
aI99
aI106
aI181
aI200
aI0
aI0
aI0
aI0
aI133
aI23
aI26
aI14
aI0
aI0
aI0
aI0
aI73
aI185
aI165
aI50
aI0
aI0
aI0
aI0
aI65
aI72
aI193
aI225
aI0
aI0
aI0
aI0
aI39
aI23
aI246
aI97
aI0
aI0
aI0
aI0
aI210
aI14
aI126
aI111
aI0
aI0
aI0
aI0
aI165
aI224
aI191
aI230
aI0
aI0
aI0
aI0
aI134
aI106
aI31
aI35
aI0
aI0
aI0
aI0
aI178
aI76
aI175
aI170
aI0
aI0
aI0
aI0
aI57
aI40
aI148
aI163
aI0
aI0
aI0
aI0
aI188
aI6
aI168
aI139
aI0
aI0
aI0
aI0
aI198
aI157
aI125
aI248
aI0
aI0
aI0
aI0
aI163
aI221
aI61
aI240
aI0
aI0
aI0
aI0
aI199
aI26
aI146
aI218
aI0
aI0
aI0
aI0
aI14
aI186
aI118
aI146
aI0
aI0
aI0
aI0
aI11
aI49
aI195
aI235
aI0
aI0
aI0
aI0
aI171
aI133
aI79
aI251
aI0
aI0
aI0
aI0
aI251
aI50
aI112
aI1
aI0
aI0
aI0
aI0
aI67
aI196
aI199
aI154
aI0
aI0
aI0
aI0
aI31
aI22
aI20
aI79
aI0
aI0
aI0
aI0
aI250
aI161
aI32
aI220
aI0
aI0
aI0
aI0
aI220
aI169
aI149
aI170
aI0
aI0
aI0
aI0
aI199
aI64
aI38
aI211
aI0
aI0
aI0
aI0
aI0
aI0
aI0
aI86
aI51
aI39
aI225
aI63
aI0
aI0
aI64
aI131
aI135
aI74
aI238
aI63
aI27
aI36
aI152
aI3
aI154
aI93
aI3
aI64
aI0
aI0
aI0
aI0
aI0
aI0
aI0
aI0
atRp22
I0
(L5048L
t(L1L
ttRp23
sbsS'train_steps'
p24
I100000
sS'max_grad_norm'
p25
F176.43010103142052
s.