(dp1
S'random_state'
p2
ccopy_reg
_reconstructor
p3
(ctextmorph.edit_model.training_run
RandomState
p4
c__builtin__
object
p5
NtRp6
(dp7
S'np'
p8
(S'MT19937'
p9
cnumpy.core.multiarray
_reconstruct
p10
(cnumpy
ndarray
p11
(I0
tS'b'
tRp12
(I1
(I624
tcnumpy
dtype
p13
(S'u4'
I0
I1
tRp14
(I3
S'<'
NNNI-1
I-1
I0
tbI00
S'\xdf\x80W\x8asHM\xda\xab\xc2\xc5Y\xdc!\xad\x8f\x92\xfe\x13\xaa\xf1\xf3\x9bt\'h\xd2\xcfY\xd7\xf1xv\xc4\x01\xf4nGw\xdel\x82\xdc\\\xb6\x0bO\x08\xa8F\x89\xb2\xf6\xd4\xb2B.\x05$\xe3\xe3\xde{$S\r\x04&\x86\xc7\x1c\x94\xa5\xbeyG_W\x89Qy\xce\xdbs\xf5\xf9\xb9\xa6\xa9hX#\n:\xbd\x1c%12\xaa\x86\xc4\x8e\'^\xa7n\xd9\xb8\x85\xdcX\x8c\x10\xac\x96\x17\xa4F\x16\x0c~\xfb\xfd\x8c\xdf\xd9\xa6\xacf.9A7\x1a\x01\xc0:d\x01\xff\xf6\x9a\x05\xf1\x89\x96\xe6)\x93\x1cc\xcc\x99L\x01@\xaa\xc4\xda,\x9d\x9c\x1d\x9a\xe2\x1f\xbf\xa4,\xf2\xf7\xab!S\x13B\x83L\xbb\xde\xe5\xe9\xca\xc5s\xa1C\xea3n\xa0\x8a\xa3)"\x94\xc4\xce\xde\xe7)\x15\x9f_\xcfhJ\x95O\xad>R\x0b-\x15[}\xcb\x1e\xd0\x86G\x86\xb0}\x13\x01\xd21/{\xa1z\xf2\x92z~R\xc6\xa4\x8c\xc9\xe7 \xaan\xfc\x02){u\xf9<\xe6w\xc2\xb6\x9a\xf7\xeeW\x8d\xe5+\x01P\x95N\xfec\x8f\xc2"\x97u\x0c\xcf\x8d\xc3\x84Qm\x83 \xf4q.\x9f\xcd\x88\xb9ac\xf6\xe5\xda\xd1\xe1\xe1V\xea\xc4z&&\x95\xab\xae\xdd\xfe\x90\xbd)\xecfcQ\x169st$x\xfa\xd4\x98\x14\xd4\xc3\xef\x8a\xfds\x89\xf2\xf2\xa4|\x9cKw?\xa8\xe3\xd2\x96Qr\xca\xdff\xf2\t/\x05\xdd\x7f\xe5\x0f\xe7\xe0\xa2\xf2\x94\xe3\x95\xffi\t \xc5\xfe\xcd\xa7\xacp\xb9\xf2\xc4\x15\x956\xcb\x7f\x15\xefH]S\x8fH\xbf\x9e\x99D\x84<\xe8e\xd7\x8e\x1a\xca""\x8cq\xb5\x1ds\xa9\xcc\x93h\x00\x81\xdb\xee!G\x95\x994~\xd9 \x8a9\x18\xd5};<\xe9@w$y\xf6\xb8\x03*\xe4G\xf8\xba\xef\xa9\x0c\xcd\r6\x8b\xd8\xd2n\xfe\xec~\x9f:\xb5K\xe0\x92\x04\xf6+\x9c\xbe\xa4`\xa2\x80C\x8f\xff\x07\x15&\xa5Tn\\\x05/\x95o\x90\x92#q\x14Ev#[\xca"h\xa9\xc2D\x82\x92\xa0\xd4.\xc7\xd2\x07\xbcR\xd1\x96u\x00\x0f\xfb\x83Z\x92[[!\x9d\xf8h\xeea\xf1\xe6\x94\xe5\xc3\x01\x14\x15\xcc\xd5\x80\xaa\x1c\x05\xa5\xac\xed_\x1b\xe6u.\x9e\xa9\xba\xe0\xf2<\x1b\xd4r\x8c_\xaa2\x8f`\xb7j\x89i2N\xdd\xfa\xa8ef\x91\x84?\x86*$\xae\x91\x8a[M\rb\x84\x85q\xb9\xf4\xec\x83K\xa9\xae\x8aHV\xd6m\xeaW\x9b\xdf\x86\xear\x8bn\xa3o\x08\xe8,\x1e[1$\xcc\xea`\\_\xfe$W\xb6Rw\x00\x96f\x7f\x93\x8d\xad\x12\xffs\xd5}\xec\xd4\x7f\xfc\x0cZ5\x82\xfcx\xfe\xc5m\xdc\xe2\xa8\x8d\xdd\x8f9R\xfc\x94\xfd\xd5\x87\xb6H\x0fp\xb90\n\xcd]\x1a\xd8$h\x94\xaah\xb7_i\xa5\x9b\x8b\xe4$\xad\xba\xc88\xdf\xf4\xe4\x7f\x01\xb8\xab\xeb\x9b\xb3\xbeN\xb4\xf5\x13\x9bu\xf9$\xe6\xc8\x8a\xd5\xadC$\xc8\xa5\x88\xad~\xe8\xc7A_$\x94\xbc\xc1F\xdf\xe7D\xa2\xab\x8c\xe0-v%.\x15#\xb2{\xbdv-7\xe0\xdb\xd3\xa66\n\xf2D\xbf+\x85aUmP\xafC,\x13\xf2QG\xb2\xfb\xca\x86\xeb\x9c\x1e\x9erF^DR\'\xf6\x1cV\xf3\x87\xbfB\x9a\t\xd8|}\x19\x13\x95^\xcd{6"\x02\xd7\x8ds\x01:\xee\xba\x1b\xfd\xa0\x98S\xaa,Y\'\xc1\r\xec\xa8\x89\xfa\xe4\xc8\x1c\xc2\x94\xb8Z\xd3b\x02tm\xe6\xc88\x0b\x1c\x9c\x9f\x00\x0bj\x0c1\x8c\xf0EU\xf0B6Eo\xaa\x83\x1d\xb2O\xd1\xd1\xae\xfd\x00\x11r\xe3\x114\xde\x82N\xbd\xef\xd6E\xb6\xf0h\x86\x06\xd3\x0b8\xed\x01\x01-\r`\x12\xbe\\\xbbI\xcdG\x17\xa3\xa2\xb1Q\xec\x82\xf9\xcc\xd1\tbUP"n\xc5\x03\x91\x95\x84n\x8fc\x19d\xb8!\x83H(fL<C5\x88\xf9\x10K\xbe>D;\x85/\x89\xf0\xa3l\x9a\xb49\x01\x01[\xcc\x87f<\xaa\x11V\xa3\xc8\x83Z\x07\x13\x07\x12\xbdJ\xac~{6\xa8WwMbLW\xc0\xb0\x80kd\xd7\x124\x82O\xeb_\x13\x10\x9c*4j\xc4 C@Oc\x0b\x19U\xddK>I\xa8\tJ\x89a\x915;\xd4\x16\xa6;\xd67@G%\xb8`\xe0\xc0:\xa5\x14\x1c.\xc3"\x93y\xf86\x834\xe4\xe8s\xaa\xc5\x9a^\x7f\xd7$\xb7\x14\xeao\x00y\xa3Ly\x14\xe4\xd0\n\x16\x05x\x11\x97{{\x10!q\xda\xba\x16\xf8,\x80\xdf\x9cOd\x85~\xb5y0(\xd2g\xe5F\x8fu\x1a\xe7\x07n\xd4B\xebR&E\x9b\xb2?\x16q?\x1bxv)\xcf\x8c\x146\x10\x06\xb8\xfd\xcb4E~[\rM\x1fJ\rT\xce\x05\x0f\xeb}F\xbf\xcbx\xc3S\r C\x00O\xbd\xed\xa5)m\xfc\x9an\x9c\xbe\xda\xd5d\x1a\xb3\x95\xff|\xc7\'<B\xe1w\x19\x11\x84n+>Rq\xe6\x16\xbd=\xe3D\xa5\xaf\xe3\xce\x8d\xb9OS\xa8\xe5\xa7\x9fr\xa5\x9e1h\xc0~/*\x95T@\xc7\xf3\x04\x1a\xbe\xd6\xf3\xbe\x05|(\xa0NO\xc8`\xfc\xc9\xe2\x0cE\xd7\x95Qt\x93\xdfMO\x8b\xd1c\xc3\x93\x14a{\xdet\xcc0G\x92\x9dqe\'\xc1\xb8$\xb3\xb0-\xfa\x18ax\x10\xcdB*\x07q_0\x16\xb0\xd8\xa1\xa9B\x91\x9d0P?\x87\xbar.C\xc4t\x91\xe4\xe7[\xe7V\xb5\xe7\xfd\xa2\x93\x8ev\xc5\xee\xc8\xe3\xcaF\x7fk\x03]\x024FZx\x89\xfbB]J\x88\xfe\x03\x19\xf1\xa4\xe4\x83\x14v\x84\x929\x97\x02K\x89\x90\x9c\xb4\xb32c\x7fd\x10\x04H\xbc\xde\xe2yb\xa6\xba\xc4SF\xab4\x07\x1dv\xd3\x08h\x89\x12j\xb782\x99\xdf\x0c\x934\xac,0qz\xb2\xc1)(\x9ele\xe56\xf47\xa0\xb0\xe5\xbb\xca\xd3\xee~\xcd\x81\x8f\xef\xb58\x02\xe0\x0e\x8a\x12\xa2gH\xc5\x0fH1\xdb\xc6\xa0\xb8,\x1e\xb9\x99\xd81\xe2\x90h\\\xfd\xf2\xd9\x92h\xf1\xad\xb4\x1f\xdbc\x13\x8e\x17G\x0c\xfe\x15\xac3a+\xe9\xe9}!\x92\x98\x92P3\xd7@\x966\xbf:\xf2;N\x03t\x9b\xfd\xecC\xa9<n\x92S\x8b@J\x18\x13A\x95}\x08\xf4\xbf?\xdf\x90\x10\x0f\x0e\x9bf\xb7\xb0\xc1\xc1w\xb8\x06\xf3\x18\xc1N\x1f1\xbc\x0bX7\xc0@,\xeb]pnw\xed\x1e\xdfJ\xac\xaa\x19ta)\x7f\xd2\x8cr\xb6\xddQ\xfaK\xce!Q\x04>\xe2\xad\xf1\xe3\xaa\x91\xaf\xcc\xfd#\xb1\x8fd\xcd\xd9 \x1c\xe4y\xbaL7a\x95!U\xa2\x04A\x9d<3\xf5\x9a\x88"\x02\x86\xf3\x1d\xdb\x18\xdb\x9b\x15\x01\xefp\xdd<^\xc7\x06\x7f\xba\xce\xbexK~\x81_6\x11\xf5\xaa&g\x0e\x86+\xe3 \x8b\x9dA^\x9d4\xe5C)qR\xff5\x13\x0bI\x8d\xab\xb6\xfe\xf75\xe1Z\xf1\x08\x1a\x97\xf8\x028\x1bO\xb4a\xd5\xacEV\t\xb5*\x13z\x97\xfb5\x0c\xa0\xce\xa4\x92\x9d(\xfd\x01&\x1e\x82\xa7\xf2p\xe6\x80\xb07\xfa#\xe1aT\x97r/7q\x17\xd2\xa3\x0e\x99\xec8\x16\x99\xcf\xaa\xcf\x8d*\xc7\nl\xb5"\xfe\xcbjQ\x813m\xe6%B\xe0\x14\xf4\x9fPSn\x13\x0c\xc2\x08\xc9\xc6\xa9Qx\xd1\xf9)\xe5\x1f\xb69#\xc8=\x0f\xf6\xb1\xac\x86\x0b\x8dV\x15z\xd2\xebV\x9b\xd5\xb1\x83)\xc3\x06\x9dq\xa8RS\x8c\x8c>\xcb\xd0Zj\xb2\xdeUW\x18\xb8\x1e\x118\x84\xe4\xdc\xbcqJ\xc36\x9e\x83\xdb\xd1a\xeaA\xce9\x8a\xae\xb9N#\xb8\xfe\xc06s\x0c\x823`\xa8\x7f\xf4\xb3KE\x96\xa5\xab#z\xdb*\x01\xcd\xecxF\xfdUA\xcb\x08\x984+\xce2_\x91\xcets>{@\x01\nW\xe1\xd5\xeep\xb7\x9b\xefI,\x7f\x8a\xea\xffU\x83Q\x0b\x80\xf2\xd4<\xa2,\x9c(O&\x9bJA\x97\xf0f\xb5\x19\xd8\x07B\xdd\xb0b8\x9e\x98\x9c\xe1\xbc\x84\xf0Y\xe5b\x06\x95(8\x0fs\xe7C\x88{DF\xf2FH\xdc\x0b\xb9Ya\xffx\xb9\x16HY-J\x06c\xd9\xea=\xdf\x11\x07\x12\x92 5\xf6@\xc1\x86\xa7/\xf4\xfb\x8d\x08r\xf5lY\xb8\x9fQ\x1a\xecD6\xbc\xd5\x01\xef\x9a\xbe`\x8c\x08\x96\x97\x91\xf90\x7fE\x83\x89\x12\x94\xc4\xbf\xa0\x1bO\xe2mA\x87\xcfY\xc8j5\xde\xa6\xd3M\xf8\x08\x9b\xf7|\x980\x88\x94\xef\xf5\x82\xf6;O\x17\xd2\x81u\x96\xfe\n\xa6\xa3\'\xa4\xb5\x14\x92\xb3$\x15\xbd\x88\x1d\x10\xfe\xd8\x94\x1d\xb4\x19\x90\x1a\x04E\xed\xf7\xaf~\x1d\x01fc\xaeeV[\xac\xe4\xab\x7f\xdb\xdd\x8a\x89\x93<\xac\x9c\x0c:\x0cFu\x0c\x1d\xed\x94\xc4\x1e\x03{\x90\xfb\xd5\n}\xeet\xb3\xb7\x1dm\x1a\n\x84\xfe\xf3"\x82\xef\x95\xc4)+\xc4\x03\'\xf4\xcf\x8f\xf1\x10\xbb\xc3\x82G_BE\xab\xd5\x14(\xc66\xc1\xb3\xa2r\xdf\xd8<YA}\xe3\x08c\xe2Uz\xde\x9a\x0c\xb2\x03\x94w\xe2\xe6|\xcf\x11\xbe[c\xa2\xb6\xc6\x1d\x00U\x97T\x05\xa4s\x18\xb0NV\xae\xc8\r\xc3BB\xe8\xea \xcd<\xe0f\xd0\\\x9bBw3:\x87\xb4\xf5p\xfd\x91\t5\xb9\x16Hj\x91<\xe0\xba(}\xeeX\xb7\xa2\x93\x88\x05\r]k\xf6@+\xb6\xa1\xd7k\x16\xebV\xa8bu\x91\xee\xa9\xb5\xbckO\xa7\xd9v\x10v\x0e0\xffpb\x0f2]\xdcV\n<\x1fC\x92\x98S\xe2\xf8\x12yk}|<\x01v\x1e\x8b\x0f\xc9\xa0\x16m\xf1\x02)\x86[\x9e\xe2c]\x16\x19\x84i\xce*\xd7R\xee\xa1\x10\xce:\xed8/\xaf\xa6\xcb\xe5j\x87\x9c/\xa1\xfd=i\xac\xd4\xd6@\x85P#S\xcf\x9em\xa3\xd6\xaa\xfaSK:\x9c\xd3\x1b$\xa5h]N\xa9k\xc7\xb8\xef\xf3\x94 \xce3[n\xe2\xc6\x95\xcc\n\r\xc2\xfb\xc3\xaa\x9c8\xdbtTne\x1c\xb7 -Y5\xa0[\x0bi\x05\x19\x86\xdf\xf3\x896?\xc2\xaa\xf4K1S2A.\xd5\xab\xd3\xedZ\xee\x14\x82\n\x98#\x8a\x91k\xde\x87!\xd5?O\x0b\n\xca\xf1n\x80\xef\x84\x15\xc8\r\xf7\x01\xa08*\xd2\x9f\x0f\xf9#\x99\x8e\x92\x8em'
tbI505
I0
F0
tp15
sS'py'
p16
(I3
(L3496431696L
L1529834835L
L389346260L
L1245711702L
L2283021344L
L2541828491L
L2812453110L
L1480543095L
L3421053601L
L2906578694L
L2900491877L
L1750595245L
L2457151410L
L2767528796L
L1623329472L
L554847462L
L730417799L
L305276452L
L536814766L
L4184874047L
L2011908806L
L1387314420L
L842359060L
L3047731013L
L418218922L
L3403189061L
L3308722573L
L1606097219L
L778754513L
L4231231682L
L2246287995L
L1597572832L
L2759282386L
L3546506738L
L2938745182L
L2337400664L
L3850517233L
L675947480L
L4088856570L
L3268457855L
L2184323071L
L619186326L
L1251404525L
L2828237639L
L2196365229L
L4108856339L
L2104675477L
L3688547784L
L3685045725L
L1381088324L
L1734444769L
L3896873426L
L3022736783L
L2805773147L
L735784708L
L4073179153L
L2866796450L
L558707396L
L2223682469L
L3949463097L
L2013705802L
L3668833235L
L660254197L
L3978020034L
L1254342226L
L3299722201L
L3455962246L
L702282457L
L2567931332L
L63757467L
L3418956513L
L4155033189L
L1945398878L
L3394717801L
L2657632527L
L933130095L
L3679703303L
L279690740L
L2366288590L
L3809657803L
L4172889547L
L86966778L
L2980438707L
L1875613766L
L2944593772L
L1045949341L
L2088178900L
L4276204886L
L1406894490L
L2063121199L
L1573504819L
L644363264L
L3899351301L
L706529640L
L1867757178L
L544461876L
L1976046873L
L3610885977L
L1437771660L
L3327213456L
L1607712385L
L2586646164L
L1135872190L
L157922495L
L1864034000L
L1088239539L
L1880840352L
L1593193028L
L209210255L
L3818400414L
L1086590020L
L2897810024L
L4111656992L
L1803468382L
L1575981505L
L2705182117L
L1280075113L
L934777142L
L2185931932L
L2950580692L
L2412239887L
L3706353958L
L1829845788L
L568732818L
L128871888L
L3642234754L
L3294267492L
L1145603838L
L847718647L
L2326373220L
L3201649463L
L1506415957L
L225531952L
L2302642807L
L3917613484L
L3745860059L
L4243978604L
L3760315967L
L4033641911L
L54793479L
L1803723091L
L4272674911L
L678321042L
L1063262303L
L3964665460L
L3312655843L
L3497338445L
L3906569383L
L1391199178L
L3995229578L
L4557430L
L3363183568L
L2800288395L
L2462761863L
L1608330177L
L3749873594L
L1099449266L
L1285704379L
L2536372460L
L3002237825L
L1680578678L
L2961566115L
L2024339405L
L536028795L
L586869992L
L4024183770L
L3162263461L
L2661505178L
L1947999412L
L1840733230L
L3943360687L
L937421937L
L2622002861L
L3546115228L
L280281708L
L1297333891L
L2927291116L
L449188634L
L1182739081L
L310490063L
L262865642L
L4280491993L
L2522361608L
L372228092L
L877940675L
L2950075010L
L3329189442L
L1674552826L
L2079863509L
L1568554295L
L270810066L
L1948280231L
L3172073473L
L576941478L
L1586931297L
L1915479437L
L4284468340L
L2733610106L
L3643502903L
L3172197413L
L3305461079L
L3784956561L
L279426597L
L2669663768L
L3246732827L
L2717574702L
L3894693692L
L3485164936L
L2042539827L
L1615040593L
L1426681585L
L2835980308L
L954519583L
L267520225L
L1817775544L
L383514937L
L379249051L
L2874140446L
L1088156479L
L2303197399L
L2292953287L
L3922479159L
L848155733L
L1312246472L
L1589984596L
L2142544045L
L504635620L
L1097622032L
L2744087153L
L3349907057L
L1415380056L
L207975088L
L726096954L
L1647062327L
L3402042741L
L573175685L
L3233084078L
L161045597L
L1440915294L
L1749070372L
L769134589L
L697759793L
L648623435L
L2222700933L
L3767096112L
L3413403578L
L569986865L
L2206841157L
L3355728081L
L3075351437L
L2853145728L
L2434770204L
L2952840099L
L2287636215L
L3448648993L
L1906509951L
L3020578298L
L1660810622L
L2916658970L
L366778194L
L1980386345L
L3533631321L
L3996990472L
L1757201909L
L352219105L
L2660950683L
L3968913702L
L4128726359L
L4203084704L
L2778685946L
L1741169435L
L814247421L
L2261962226L
L2978058463L
L1079356453L
L753511641L
L56446132L
L153712621L
L1929521440L
L1213271419L
L2427160874L
L1760045288L
L3945736830L
L3875051788L
L2357723297L
L2122250377L
L1317249724L
L1466124334L
L2842121366L
L3461563606L
L1443945491L
L2118685481L
L1104204655L
L132026378L
L2101998355L
L341763912L
L80523723L
L2258605857L
L3759427116L
L3046544028L
L2621922750L
L2706370012L
L4179680770L
L2031103673L
L678043887L
L538114060L
L3132778475L
L577301506L
L1458430429L
L1185944458L
L3951888983L
L709497813L
L1465544227L
L2022353965L
L2473286876L
L2404642478L
L2150763202L
L3413031801L
L4083114935L
L856860133L
L3595489309L
L3057031669L
L707913243L
L1354386985L
L2776956395L
L2891114230L
L3909288313L
L466480803L
L1024315598L
L625556075L
L3180501370L
L1645283098L
L276006713L
L2354829264L
L1499756706L
L1703459410L
L4158128935L
L4233695719L
L641264583L
L3949592214L
L2402177489L
L3116654504L
L1209991581L
L2967587564L
L3016344278L
L3474653402L
L2570404024L
L539850735L
L749734268L
L1527992872L
L3326391064L
L2883461399L
L4185443675L
L1541775581L
L4252325024L
L4062988598L
L3986211131L
L1880172621L
L98753896L
L1152653890L
L1028918738L
L2914631350L
L760861422L
L2102615459L
L1043111187L
L4205149627L
L1517174283L
L1532234080L
L24930469L
L1601567189L
L339037711L
L2449947517L
L2524752400L
L355144678L
L447345996L
L1103281426L
L816595806L
L1112776978L
L416454999L
L3322487783L
L2664135529L
L3350208171L
L828298745L
L1462076474L
L2176070446L
L2018376728L
L3431568223L
L829711998L
L30034853L
L2371900786L
L2177279781L
L3177687976L
L1914932229L
L554992004L
L3497377817L
L3725198729L
L4045010937L
L918914281L
L2702672009L
L4167337425L
L4090247736L
L3240198022L
L4275363558L
L2026475369L
L3547570867L
L2542500956L
L189690524L
L2463693454L
L1815259894L
L4271498174L
L336431304L
L1747958124L
L1965654925L
L3248941719L
L1761043608L
L279574866L
L1494031378L
L2748009080L
L1217941224L
L2447875032L
L3988977829L
L4116004396L
L3990741518L
L207074781L
L2356168308L
L2406612753L
L2367354994L
L4136698669L
L2392887560L
L521307687L
L781415138L
L3078402830L
L4114830111L
L1309382729L
L898073091L
L1827769082L
L2658189198L
L2895617117L
L3230835456L
L112427162L
L856024692L
L942392533L
L3871596527L
L627848693L
L772145526L
L1799028976L
L4190157976L
L2444937643L
L1183988275L
L3934060662L
L2946656195L
L2177859238L
L3519371351L
L3777266127L
L1711090802L
L1556430982L
L2624929962L
L3527134687L
L3680889812L
L4263456921L
L3322994848L
L1729985028L
L3376634412L
L1479603211L
L1896259691L
L2425335814L
L4250622278L
L3627413022L
L91941329L
L1083858655L
L2575209407L
L1975809504L
L3158042871L
L232879022L
L2233488551L
L3422741157L
L3986658811L
L2694248816L
L4250680257L
L2467830886L
L760533762L
L4049566577L
L2158552060L
L799825210L
L1323592218L
L1399200657L
L1527090134L
L4095885749L
L1795813875L
L833249432L
L3788652868L
L2600151644L
L562632978L
L2113554160L
L4188263284L
L2398205300L
L2390435612L
L3343561831L
L4140891005L
L2609483245L
L731281508L
L2627681261L
L389061273L
L1943163086L
L3416734989L
L1605105821L
L2485174229L
L2571370103L
L78997237L
L156300581L
L742902212L
L876620798L
L3507770987L
L701237976L
L3311472348L
L665481469L
L50637793L
L2002216198L
L416867625L
L2493053815L
L3218825615L
L3546026121L
L1142676302L
L1950385195L
L946101307L
L3446274196L
L3998292124L
L2577507387L
L2997750744L
L1277417198L
L3389732792L
L3912036816L
L2674860730L
L2197294199L
L2589452206L
L2680432814L
L2431608313L
L1160966000L
L2132182589L
L1609875031L
L1754889828L
L3514822049L
L1651638179L
L2109940675L
L2400680874L
L211001497L
L4043865658L
L1443229836L
L4265248090L
L2942289615L
L1803584326L
L948286133L
L3820897082L
L3305635492L
L1455313613L
L416383420L
L416349147L
L2589681207L
L2866488196L
L1300505666L
L1285201166L
L1147138104L
L2330806898L
L2868790157L
L1974044903L
L3615694266L
L4125507742L
L424069112L
L2439714103L
L739252621L
L1608411213L
L4198696549L
L1408620236L
L87810107L
L3353776791L
L1531226111L
L3473049108L
L1365369574L
L2718561816L
L3284665308L
L416343400L
L310822256L
L3879143178L
L3559806990L
L3098555292L
L786499766L
L2392248077L
L3712094031L
L799210855L
L3177428182L
L3478705754L
L3776385963L
L3412077169L
L1083606646L
L3864390892L
L2007405201L
L2670361094L
L123833717L
L3340797156L
L3965846070L
L179629372L
L454320427L
L1573990087L
L2388421490L
L2302000246L
L2041785575L
L2616332950L
L2032188511L
L3565132998L
L3813968208L
L168032781L
L1122892303L
L558197149L
L1574642823L
L3074243545L
L1282047349L
L783900913L
L3366591823L
L846684863L
L4196425539L
L162507918L
L889155416L
L3753550998L
L3643432913L
L246L
tNtp17
sS'torch'
p18
ctorch._utils
_rebuild_tensor
p19
(ctorch
ByteStorage
p20
((lp21
I0
aI0
aI0
aI0
aI0
aI0
aI0
aI0
aI49
aI1
aI0
aI0
aI1
aI0
aI0
aI0
aI64
aI1
aI0
aI0
aI0
aI0
aI0
aI0
aI59
aI234
aI216
aI246
aI0
aI0
aI0
aI0
aI225
aI30
aI228
aI17
aI0
aI0
aI0
aI0
aI34
aI190
aI199
aI184
aI0
aI0
aI0
aI0
aI19
aI199
aI136
aI93
aI0
aI0
aI0
aI0
aI244
aI194
aI92
aI21
aI0
aI0
aI0
aI0
aI29
aI105
aI177
aI73
aI0
aI0
aI0
aI0
aI243
aI55
aI32
aI37
aI0
aI0
aI0
aI0
aI78
aI125
aI120
aI44
aI0
aI0
aI0
aI0
aI34
aI179
aI73
aI12
aI0
aI0
aI0
aI0
aI214
aI4
aI234
aI127
aI0
aI0
aI0
aI0
aI65
aI71
aI0
aI1
aI0
aI0
aI0
aI0
aI68
aI249
aI250
aI222
aI0
aI0
aI0
aI0
aI138
aI240
aI171
aI25
aI0
aI0
aI0
aI0
aI145
aI82
aI245
aI125
aI0
aI0
aI0
aI0
aI11
aI20
aI60
aI20
aI0
aI0
aI0
aI0
aI39
aI236
aI4
aI104
aI0
aI0
aI0
aI0
aI57
aI224
aI46
aI9
aI0
aI0
aI0
aI0
aI157
aI43
aI144
aI193
aI0
aI0
aI0
aI0
aI159
aI55
aI8
aI147
aI0
aI0
aI0
aI0
aI8
aI38
aI19
aI223
aI0
aI0
aI0
aI0
aI122
aI133
aI31
aI212
aI0
aI0
aI0
aI0
aI190
aI224
aI206
aI13
aI0
aI0
aI0
aI0
aI235
aI33
aI150
aI210
aI0
aI0
aI0
aI0
aI49
aI41
aI178
aI242
aI0
aI0
aI0
aI0
aI34
aI16
aI128
aI27
aI0
aI0
aI0
aI0
aI21
aI60
aI148
aI160
aI0
aI0
aI0
aI0
aI43
aI119
aI153
aI139
aI0
aI0
aI0
aI0
aI142
aI198
aI192
aI219
aI0
aI0
aI0
aI0
aI197
aI4
aI253
aI108
aI0
aI0
aI0
aI0
aI174
aI17
aI236
aI31
aI0
aI0
aI0
aI0
aI37
aI23
aI68
aI125
aI0
aI0
aI0
aI0
aI215
aI232
aI52
aI139
aI0
aI0
aI0
aI0
aI43
aI124
aI100
aI146
aI0
aI0
aI0
aI0
aI106
aI58
aI142
aI23
aI0
aI0
aI0
aI0
aI248
aI13
aI39
aI95
aI0
aI0
aI0
aI0
aI32
aI73
aI76
aI198
aI0
aI0
aI0
aI0
aI55
aI238
aI90
aI44
aI0
aI0
aI0
aI0
aI16
aI55
aI182
aI181
aI0
aI0
aI0
aI0
aI221
aI91
aI60
aI49
aI0
aI0
aI0
aI0
aI161
aI150
aI25
aI21
aI0
aI0
aI0
aI0
aI190
aI215
aI13
aI210
aI0
aI0
aI0
aI0
aI113
aI119
aI8
aI176
aI0
aI0
aI0
aI0
aI194
aI39
aI22
aI18
aI0
aI0
aI0
aI0
aI52
aI10
aI243
aI152
aI0
aI0
aI0
aI0
aI112
aI75
aI65
aI200
aI0
aI0
aI0
aI0
aI21
aI216
aI7
aI184
aI0
aI0
aI0
aI0
aI172
aI243
aI198
aI193
aI0
aI0
aI0
aI0
aI89
aI4
aI192
aI174
aI0
aI0
aI0
aI0
aI171
aI18
aI200
aI218
aI0
aI0
aI0
aI0
aI43
aI8
aI63
aI249
aI0
aI0
aI0
aI0
aI174
aI186
aI111
aI73
aI0
aI0
aI0
aI0
aI213
aI83
aI123
aI199
aI0
aI0
aI0
aI0
aI16
aI231
aI254
aI131
aI0
aI0
aI0
aI0
aI62
aI95
aI7
aI20
aI0
aI0
aI0
aI0
aI129
aI239
aI74
aI110
aI0
aI0
aI0
aI0
aI63
aI100
aI101
aI87
aI0
aI0
aI0
aI0
aI63
aI5
aI107
aI98
aI0
aI0
aI0
aI0
aI170
aI94
aI18
aI20
aI0
aI0
aI0
aI0
aI116
aI32
aI186
aI194
aI0
aI0
aI0
aI0
aI149
aI47
aI222
aI40
aI0
aI0
aI0
aI0
aI218
aI1
aI41
aI76
aI0
aI0
aI0
aI0
aI40
aI162
aI146
aI143
aI0
aI0
aI0
aI0
aI206
aI245
aI114
aI167
aI0
aI0
aI0
aI0
aI5
aI148
aI120
aI241
aI0
aI0
aI0
aI0
aI0
aI116
aI228
aI186
aI0
aI0
aI0
aI0
aI38
aI70
aI3
aI219
aI0
aI0
aI0
aI0
aI163
aI92
aI249
aI89
aI0
aI0
aI0
aI0
aI89
aI227
aI2
aI100
aI0
aI0
aI0
aI0
aI237
aI235
aI222
aI150
aI0
aI0
aI0
aI0
aI183
aI119
aI254
aI54
aI0
aI0
aI0
aI0
aI173
aI171
aI123
aI65
aI0
aI0
aI0
aI0
aI164
aI187
aI32
aI114
aI0
aI0
aI0
aI0
aI139
aI7
aI144
aI107
aI0
aI0
aI0
aI0
aI131
aI77
aI243
aI218
aI0
aI0
aI0
aI0
aI167
aI229
aI14
aI237
aI0
aI0
aI0
aI0
aI22
aI79
aI250
aI1
aI0
aI0
aI0
aI0
aI234
aI249
aI243
aI47
aI0
aI0
aI0
aI0
aI156
aI14
aI191
aI174
aI0
aI0
aI0
aI0
aI21
aI120
aI149
aI112
aI0
aI0
aI0
aI0
aI123
aI88
aI119
aI220
aI0
aI0
aI0
aI0
aI192
aI81
aI160
aI153
aI0
aI0
aI0
aI0
aI96
aI135
aI99
aI46
aI0
aI0
aI0
aI0
aI47
aI34
aI179
aI170
aI0
aI0
aI0
aI0
aI41
aI177
aI73
aI104
aI0
aI0
aI0
aI0
aI190
aI150
aI224
aI219
aI0
aI0
aI0
aI0
aI249
aI50
aI200
aI206
aI0
aI0
aI0
aI0
aI97
aI104
aI12
aI157
aI0
aI0
aI0
aI0
aI162
aI113
aI126
aI44
aI0
aI0
aI0
aI0
aI203
aI141
aI72
aI228
aI0
aI0
aI0
aI0
aI84
aI190
aI161
aI162
aI0
aI0
aI0
aI0
aI109
aI46
aI55
aI14
aI0
aI0
aI0
aI0
aI39
aI98
aI121
aI110
aI0
aI0
aI0
aI0
aI37
aI158
aI214
aI132
aI0
aI0
aI0
aI0
aI33
aI100
aI163
aI212
aI0
aI0
aI0
aI0
aI224
aI87
aI244
aI36
aI0
aI0
aI0
aI0
aI43
aI65
aI39
aI229
aI0
aI0
aI0
aI0
aI13
aI150
aI144
aI222
aI0
aI0
aI0
aI0
aI221
aI77
aI74
aI240
aI0
aI0
aI0
aI0
aI83
aI62
aI197
aI22
aI0
aI0
aI0
aI0
aI26
aI94
aI61
aI130
aI0
aI0
aI0
aI0
aI223
aI25
aI219
aI69
aI0
aI0
aI0
aI0
aI246
aI37
aI142
aI76
aI0
aI0
aI0
aI0
aI201
aI209
aI34
aI128
aI0
aI0
aI0
aI0
aI195
aI108
aI197
aI198
aI0
aI0
aI0
aI0
aI213
aI26
aI6
aI37
aI0
aI0
aI0
aI0
aI145
aI46
aI91
aI131
aI0
aI0
aI0
aI0
aI76
aI4
aI157
aI121
aI0
aI0
aI0
aI0
aI59
aI111
aI39
aI187
aI0
aI0
aI0
aI0
aI185
aI120
aI99
aI217
aI0
aI0
aI0
aI0
aI63
aI117
aI14
aI193
aI0
aI0
aI0
aI0
aI8
aI54
aI135
aI116
aI0
aI0
aI0
aI0
aI110
aI26
aI136
aI230
aI0
aI0
aI0
aI0
aI155
aI222
aI33
aI41
aI0
aI0
aI0
aI0
aI3
aI53
aI229
aI95
aI0
aI0
aI0
aI0
aI17
aI227
aI184
aI61
aI0
aI0
aI0
aI0
aI201
aI110
aI188
aI59
aI0
aI0
aI0
aI0
aI153
aI74
aI19
aI112
aI0
aI0
aI0
aI0
aI229
aI18
aI216
aI233
aI0
aI0
aI0
aI0
aI94
aI241
aI154
aI44
aI0
aI0
aI0
aI0
aI181
aI15
aI245
aI64
aI0
aI0
aI0
aI0
aI109
aI75
aI219
aI140
aI0
aI0
aI0
aI0
aI80
aI85
aI75
aI199
aI0
aI0
aI0
aI0
aI81
aI221
aI252
aI103
aI0
aI0
aI0
aI0
aI51
aI132
aI71
aI179
aI0
aI0
aI0
aI0
aI39
aI85
aI16
aI208
aI0
aI0
aI0
aI0
aI15
aI196
aI177
aI7
aI0
aI0
aI0
aI0
aI77
aI131
aI27
aI11
aI0
aI0
aI0
aI0
aI85
aI154
aI190
aI1
aI0
aI0
aI0
aI0
aI1
aI195
aI129
aI8
aI0
aI0
aI0
aI0
aI177
aI199
aI138
aI187
aI0
aI0
aI0
aI0
aI206
aI34
aI76
aI28
aI0
aI0
aI0
aI0
aI100
aI84
aI203
aI84
aI0
aI0
aI0
aI0
aI34
aI138
aI15
aI65
aI0
aI0
aI0
aI0
aI83
aI17
aI3
aI141
aI0
aI0
aI0
aI0
aI209
aI224
aI50
aI1
aI0
aI0
aI0
aI0
aI78
aI195
aI99
aI221
aI0
aI0
aI0
aI0
aI207
aI83
aI220
aI81
aI0
aI0
aI0
aI0
aI65
aI16
aI161
aI216
aI0
aI0
aI0
aI0
aI120
aI102
aI117
aI162
aI0
aI0
aI0
aI0
aI149
aI54
aI41
aI27
aI0
aI0
aI0
aI0
aI109
aI166
aI250
aI196
aI0
aI0
aI0
aI0
aI93
aI235
aI14
aI218
aI0
aI0
aI0
aI0
aI31
aI205
aI248
aI209
aI0
aI0
aI0
aI0
aI244
aI165
aI23
aI119
aI0
aI0
aI0
aI0
aI153
aI170
aI36
aI159
aI0
aI0
aI0
aI0
aI72
aI29
aI31
aI227
aI0
aI0
aI0
aI0
aI149
aI32
aI106
aI95
aI0
aI0
aI0
aI0
aI10
aI105
aI167
aI22
aI0
aI0
aI0
aI0
aI41
aI48
aI120
aI16
aI0
aI0
aI0
aI0
aI30
aI104
aI152
aI76
aI0
aI0
aI0
aI0
aI91
aI3
aI191
aI110
aI0
aI0
aI0
aI0
aI234
aI35
aI207
aI228
aI0
aI0
aI0
aI0
aI249
aI152
aI195
aI136
aI0
aI0
aI0
aI0
aI160
aI249
aI74
aI131
aI0
aI0
aI0
aI0
aI228
aI160
aI159
aI12
aI0
aI0
aI0
aI0
aI121
aI91
aI246
aI29
aI0
aI0
aI0
aI0
aI179
aI51
aI203
aI175
aI0
aI0
aI0
aI0
aI103
aI142
aI247
aI249
aI0
aI0
aI0
aI0
aI7
aI3
aI80
aI171
aI0
aI0
aI0
aI0
aI200
aI167
aI1
aI126
aI0
aI0
aI0
aI0
aI244
aI61
aI37
aI124
aI0
aI0
aI0
aI0
aI44
aI105
aI248
aI153
aI0
aI0
aI0
aI0
aI28
aI49
aI82
aI174
aI0
aI0
aI0
aI0
aI220
aI128
aI80
aI206
aI0
aI0
aI0
aI0
aI196
aI230
aI233
aI31
aI0
aI0
aI0
aI0
aI122
aI129
aI230
aI20
aI0
aI0
aI0
aI0
aI113
aI132
aI137
aI146
aI0
aI0
aI0
aI0
aI238
aI142
aI133
aI119
aI0
aI0
aI0
aI0
aI193
aI99
aI120
aI160
aI0
aI0
aI0
aI0
aI28
aI183
aI105
aI164
aI0
aI0
aI0
aI0
aI232
aI196
aI9
aI97
aI0
aI0
aI0
aI0
aI67
aI135
aI82
aI97
aI0
aI0
aI0
aI0
aI57
aI240
aI45
aI13
aI0
aI0
aI0
aI0
aI249
aI82
aI140
aI93
aI0
aI0
aI0
aI0
aI87
aI210
aI185
aI228
aI0
aI0
aI0
aI0
aI62
aI214
aI35
aI91
aI0
aI0
aI0
aI0
aI10
aI169
aI239
aI77
aI0
aI0
aI0
aI0
aI187
aI58
aI219
aI6
aI0
aI0
aI0
aI0
aI252
aI248
aI201
aI188
aI0
aI0
aI0
aI0
aI221
aI91
aI253
aI233
aI0
aI0
aI0
aI0
aI13
aI134
aI15
aI93
aI0
aI0
aI0
aI0
aI251
aI185
aI236
aI96
aI0
aI0
aI0
aI0
aI220
aI210
aI251
aI236
aI0
aI0
aI0
aI0
aI191
aI202
aI138
aI32
aI0
aI0
aI0
aI0
aI19
aI174
aI223
aI3
aI0
aI0
aI0
aI0
aI45
aI35
aI120
aI95
aI0
aI0
aI0
aI0
aI173
aI10
aI26
aI83
aI0
aI0
aI0
aI0
aI34
aI30
aI152
aI167
aI0
aI0
aI0
aI0
aI132
aI54
aI201
aI245
aI0
aI0
aI0
aI0
aI218
aI165
aI217
aI47
aI0
aI0
aI0
aI0
aI209
aI87
aI25
aI39
aI0
aI0
aI0
aI0
aI74
aI82
aI2
aI65
aI0
aI0
aI0
aI0
aI3
aI147
aI146
aI63
aI0
aI0
aI0
aI0
aI4
aI177
aI190
aI151
aI0
aI0
aI0
aI0
aI36
aI225
aI169
aI178
aI0
aI0
aI0
aI0
aI174
aI129
aI168
aI9
aI0
aI0
aI0
aI0
aI111
aI122
aI80
aI6
aI0
aI0
aI0
aI0
aI204
aI226
aI105
aI53
aI0
aI0
aI0
aI0
aI85
aI229
aI47
aI233
aI0
aI0
aI0
aI0
aI129
aI26
aI184
aI59
aI0
aI0
aI0
aI0
aI244
aI43
aI24
aI217
aI0
aI0
aI0
aI0
aI238
aI78
aI26
aI41
aI0
aI0
aI0
aI0
aI212
aI26
aI21
aI66
aI0
aI0
aI0
aI0
aI131
aI134
aI36
aI63
aI0
aI0
aI0
aI0
aI145
aI97
aI172
aI53
aI0
aI0
aI0
aI0
aI232
aI92
aI216
aI115
aI0
aI0
aI0
aI0
aI164
aI246
aI84
aI150
aI0
aI0
aI0
aI0
aI144
aI251
aI223
aI1
aI0
aI0
aI0
aI0
aI52
aI234
aI201
aI47
aI0
aI0
aI0
aI0
aI9
aI51
aI250
aI201
aI0
aI0
aI0
aI0
aI71
aI164
aI172
aI43
aI0
aI0
aI0
aI0
aI223
aI37
aI38
aI81
aI0
aI0
aI0
aI0
aI95
aI236
aI203
aI127
aI0
aI0
aI0
aI0
aI208
aI42
aI116
aI127
aI0
aI0
aI0
aI0
aI205
aI114
aI253
aI244
aI0
aI0
aI0
aI0
aI158
aI84
aI31
aI154
aI0
aI0
aI0
aI0
aI182
aI236
aI208
aI26
aI0
aI0
aI0
aI0
aI197
aI227
aI13
aI22
aI0
aI0
aI0
aI0
aI91
aI49
aI232
aI167
aI0
aI0
aI0
aI0
aI122
aI252
aI211
aI48
aI0
aI0
aI0
aI0
aI30
aI248
aI62
aI125
aI0
aI0
aI0
aI0
aI24
aI167
aI93
aI5
aI0
aI0
aI0
aI0
aI30
aI228
aI177
aI23
aI0
aI0
aI0
aI0
aI232
aI178
aI74
aI204
aI0
aI0
aI0
aI0
aI251
aI194
aI166
aI16
aI0
aI0
aI0
aI0
aI1
aI177
aI186
aI125
aI0
aI0
aI0
aI0
aI237
aI139
aI67
aI174
aI0
aI0
aI0
aI0
aI5
aI154
aI76
aI237
aI0
aI0
aI0
aI0
aI221
aI226
aI217
aI147
aI0
aI0
aI0
aI0
aI214
aI134
aI239
aI228
aI0
aI0
aI0
aI0
aI126
aI147
aI54
aI74
aI0
aI0
aI0
aI0
aI120
aI64
aI34
aI211
aI0
aI0
aI0
aI0
aI55
aI116
aI249
aI54
aI0
aI0
aI0
aI0
aI152
aI147
aI211
aI117
aI0
aI0
aI0
aI0
aI160
aI77
aI138
aI61
aI0
aI0
aI0
aI0
aI43
aI75
aI254
aI104
aI0
aI0
aI0
aI0
aI102
aI79
aI104
aI175
aI0
aI0
aI0
aI0
aI130
aI151
aI126
aI152
aI0
aI0
aI0
aI0
aI177
aI64
aI71
aI169
aI0
aI0
aI0
aI0
aI56
aI173
aI9
aI253
aI0
aI0
aI0
aI0
aI156
aI153
aI123
aI128
aI0
aI0
aI0
aI0
aI136
aI69
aI96
aI76
aI0
aI0
aI0
aI0
aI185
aI41
aI55
aI199
aI0
aI0
aI0
aI0
aI189
aI125
aI103
aI189
aI0
aI0
aI0
aI0
aI69
aI157
aI218
aI105
aI0
aI0
aI0
aI0
aI125
aI198
aI49
aI53
aI0
aI0
aI0
aI0
aI104
aI123
aI140
aI39
aI0
aI0
aI0
aI0
aI241
aI117
aI148
aI112
aI0
aI0
aI0
aI0
aI216
aI125
aI246
aI171
aI0
aI0
aI0
aI0
aI226
aI195
aI184
aI92
aI0
aI0
aI0
aI0
aI53
aI217
aI159
aI80
aI0
aI0
aI0
aI0
aI61
aI1
aI158
aI226
aI0
aI0
aI0
aI0
aI2
aI74
aI208
aI28
aI0
aI0
aI0
aI0
aI244
aI24
aI220
aI146
aI0
aI0
aI0
aI0
aI79
aI240
aI145
aI40
aI0
aI0
aI0
aI0
aI67
aI148
aI64
aI220
aI0
aI0
aI0
aI0
aI129
aI126
aI232
aI121
aI0
aI0
aI0
aI0
aI125
aI94
aI35
aI127
aI0
aI0
aI0
aI0
aI171
aI4
aI178
aI206
aI0
aI0
aI0
aI0
aI242
aI194
aI20
aI196
aI0
aI0
aI0
aI0
aI237
aI209
aI151
aI250
aI0
aI0
aI0
aI0
aI46
aI79
aI140
aI69
aI0
aI0
aI0
aI0
aI36
aI91
aI26
aI86
aI0
aI0
aI0
aI0
aI44
aI184
aI205
aI238
aI0
aI0
aI0
aI0
aI107
aI29
aI76
aI214
aI0
aI0
aI0
aI0
aI185
aI71
aI111
aI235
aI0
aI0
aI0
aI0
aI152
aI135
aI44
aI154
aI0
aI0
aI0
aI0
aI51
aI124
aI101
aI80
aI0
aI0
aI0
aI0
aI35
aI125
aI128
aI100
aI0
aI0
aI0
aI0
aI132
aI93
aI174
aI102
aI0
aI0
aI0
aI0
aI90
aI176
aI206
aI156
aI0
aI0
aI0
aI0
aI159
aI41
aI171
aI22
aI0
aI0
aI0
aI0
aI173
aI235
aI52
aI143
aI0
aI0
aI0
aI0
aI96
aI104
aI109
aI119
aI0
aI0
aI0
aI0
aI162
aI196
aI176
aI130
aI0
aI0
aI0
aI0
aI207
aI35
aI129
aI111
aI0
aI0
aI0
aI0
aI44
aI61
aI90
aI58
aI0
aI0
aI0
aI0
aI201
aI38
aI241
aI23
aI0
aI0
aI0
aI0
aI244
aI105
aI47
aI36
aI0
aI0
aI0
aI0
aI247
aI19
aI25
aI82
aI0
aI0
aI0
aI0
aI16
aI218
aI78
aI197
aI0
aI0
aI0
aI0
aI111
aI95
aI160
aI32
aI0
aI0
aI0
aI0
aI151
aI190
aI118
aI177
aI0
aI0
aI0
aI0
aI5
aI151
aI16
aI148
aI0
aI0
aI0
aI0
aI159
aI28
aI203
aI229
aI0
aI0
aI0
aI0
aI213
aI147
aI69
aI228
aI0
aI0
aI0
aI0
aI217
aI83
aI145
aI237
aI0
aI0
aI0
aI0
aI95
aI196
aI140
aI216
aI0
aI0
aI0
aI0
aI241
aI48
aI81
aI149
aI0
aI0
aI0
aI0
aI141
aI136
aI164
aI147
aI0
aI0
aI0
aI0
aI178
aI123
aI154
aI124
aI0
aI0
aI0
aI0
aI129
aI152
aI112
aI220
aI0
aI0
aI0
aI0
aI101
aI142
aI17
aI56
aI0
aI0
aI0
aI0
aI86
aI161
aI173
aI57
aI0
aI0
aI0
aI0
aI185
aI185
aI50
aI170
aI0
aI0
aI0
aI0
aI168
aI244
aI110
aI109
aI0
aI0
aI0
aI0
aI208
aI85
aI119
aI27
aI0
aI0
aI0
aI0
aI51
aI238
aI97
aI45
aI0
aI0
aI0
aI0
aI229
aI170
aI121
aI208
aI0
aI0
aI0
aI0
aI89
aI83
aI49
aI84
aI0
aI0
aI0
aI0
aI15
aI31
aI137
aI146
aI0
aI0
aI0
aI0
aI149
aI97
aI33
aI61
aI0
aI0
aI0
aI0
aI89
aI210
aI164
aI15
aI0
aI0
aI0
aI0
aI211
aI190
aI59
aI162
aI0
aI0
aI0
aI0
aI216
aI143
aI121
aI226
aI0
aI0
aI0
aI0
aI197
aI102
aI121
aI200
aI0
aI0
aI0
aI0
aI244
aI49
aI32
aI193
aI0
aI0
aI0
aI0
aI136
aI92
aI239
aI133
aI0
aI0
aI0
aI0
aI52
aI158
aI167
aI59
aI0
aI0
aI0
aI0
aI78
aI229
aI100
aI158
aI0
aI0
aI0
aI0
aI91
aI205
aI4
aI32
aI0
aI0
aI0
aI0
aI213
aI84
aI185
aI229
aI0
aI0
aI0
aI0
aI144
aI146
aI6
aI111
aI0
aI0
aI0
aI0
aI50
aI71
aI77
aI151
aI0
aI0
aI0
aI0
aI167
aI150
aI1
aI71
aI0
aI0
aI0
aI0
aI154
aI85
aI69
aI228
aI0
aI0
aI0
aI0
aI17
aI62
aI124
aI117
aI0
aI0
aI0
aI0
aI82
aI244
aI244
aI250
aI0
aI0
aI0
aI0
aI12
aI30
aI237
aI177
aI0
aI0
aI0
aI0
aI10
aI57
aI144
aI204
aI0
aI0
aI0
aI0
aI238
aI141
aI42
aI96
aI0
aI0
aI0
aI0
aI214
aI184
aI66
aI42
aI0
aI0
aI0
aI0
aI48
aI69
aI191
aI171
aI0
aI0
aI0
aI0
aI67
aI87
aI131
aI220
aI0
aI0
aI0
aI0
aI189
aI213
aI61
aI97
aI0
aI0
aI0
aI0
aI214
aI77
aI202
aI255
aI0
aI0
aI0
aI0
aI135
aI32
aI146
aI3
aI0
aI0
aI0
aI0
aI53
aI19
aI146
aI151
aI0
aI0
aI0
aI0
aI224
aI117
aI155
aI189
aI0
aI0
aI0
aI0
aI83
aI30
aI210
aI215
aI0
aI0
aI0
aI0
aI70
aI10
aI68
aI7
aI0
aI0
aI0
aI0
aI122
aI139
aI224
aI246
aI0
aI0
aI0
aI0
aI6
aI80
aI90
aI155
aI0
aI0
aI0
aI0
aI55
aI179
aI164
aI39
aI0
aI0
aI0
aI0
aI191
aI103
aI105
aI8
aI0
aI0
aI0
aI0
aI172
aI187
aI99
aI114
aI0
aI0
aI0
aI0
aI253
aI92
aI229
aI6
aI0
aI0
aI0
aI0
aI175
aI204
aI165
aI178
aI0
aI0
aI0
aI0
aI61
aI217
aI233
aI241
aI0
aI0
aI0
aI0
aI137
aI96
aI102
aI155
aI0
aI0
aI0
aI0
aI233
aI13
aI147
aI215
aI0
aI0
aI0
aI0
aI82
aI209
aI186
aI184
aI0
aI0
aI0
aI0
aI219
aI143
aI35
aI74
aI0
aI0
aI0
aI0
aI30
aI163
aI203
aI184
aI0
aI0
aI0
aI0
aI53
aI29
aI3
aI162
aI0
aI0
aI0
aI0
aI215
aI212
aI23
aI115
aI0
aI0
aI0
aI0
aI219
aI69
aI184
aI126
aI0
aI0
aI0
aI0
aI29
aI136
aI171
aI250
aI0
aI0
aI0
aI0
aI32
aI209
aI149
aI179
aI0
aI0
aI0
aI0
aI57
aI189
aI131
aI89
aI0
aI0
aI0
aI0
aI158
aI234
aI234
aI93
aI0
aI0
aI0
aI0
aI174
aI6
aI11
aI215
aI0
aI0
aI0
aI0
aI134
aI51
aI215
aI38
aI0
aI0
aI0
aI0
aI169
aI185
aI117
aI104
aI0
aI0
aI0
aI0
aI92
aI72
aI10
aI241
aI0
aI0
aI0
aI0
aI25
aI160
aI145
aI202
aI0
aI0
aI0
aI0
aI58
aI129
aI157
aI7
aI0
aI0
aI0
aI0
aI54
aI26
aI140
aI38
aI0
aI0
aI0
aI0
aI165
aI171
aI79
aI99
aI0
aI0
aI0
aI0
aI104
aI57
aI234
aI153
aI0
aI0
aI0
aI0
aI244
aI76
aI51
aI90
aI0
aI0
aI0
aI0
aI221
aI170
aI103
aI251
aI0
aI0
aI0
aI0
aI42
aI66
aI86
aI240
aI0
aI0
aI0
aI0
aI216
aI14
aI79
aI29
aI0
aI0
aI0
aI0
aI104
aI166
aI20
aI181
aI0
aI0
aI0
aI0
aI118
aI11
aI122
aI124
aI0
aI0
aI0
aI0
aI4
aI180
aI205
aI159
aI0
aI0
aI0
aI0
aI220
aI113
aI251
aI250
aI0
aI0
aI0
aI0
aI171
aI186
aI47
aI228
aI0
aI0
aI0
aI0
aI69
aI200
aI115
aI150
aI0
aI0
aI0
aI0
aI160
aI158
aI22
aI230
aI0
aI0
aI0
aI0
aI9
aI218
aI89
aI84
aI0
aI0
aI0
aI0
aI162
aI219
aI159
aI61
aI0
aI0
aI0
aI0
aI52
aI193
aI80
aI240
aI0
aI0
aI0
aI0
aI152
aI109
aI162
aI226
aI0
aI0
aI0
aI0
aI101
aI142
aI188
aI217
aI0
aI0
aI0
aI0
aI72
aI11
aI83
aI141
aI0
aI0
aI0
aI0
aI65
aI64
aI3
aI40
aI0
aI0
aI0
aI0
aI203
aI121
aI153
aI181
aI0
aI0
aI0
aI0
aI88
aI209
aI252
aI51
aI0
aI0
aI0
aI0
aI213
aI144
aI119
aI64
aI0
aI0
aI0
aI0
aI242
aI207
aI232
aI122
aI0
aI0
aI0
aI0
aI36
aI104
aI117
aI210
aI0
aI0
aI0
aI0
aI35
aI55
aI122
aI98
aI0
aI0
aI0
aI0
aI219
aI172
aI75
aI98
aI0
aI0
aI0
aI0
aI58
aI187
aI59
aI201
aI0
aI0
aI0
aI0
aI208
aI255
aI249
aI173
aI0
aI0
aI0
aI0
aI240
aI88
aI203
aI146
aI0
aI0
aI0
aI0
aI177
aI175
aI12
aI212
aI0
aI0
aI0
aI0
aI53
aI64
aI212
aI253
aI0
aI0
aI0
aI0
aI31
aI158
aI190
aI237
aI0
aI0
aI0
aI0
aI224
aI193
aI178
aI214
aI0
aI0
aI0
aI0
aI50
aI211
aI169
aI251
aI0
aI0
aI0
aI0
aI40
aI223
aI151
aI130
aI0
aI0
aI0
aI0
aI232
aI227
aI131
aI125
aI0
aI0
aI0
aI0
aI231
aI109
aI111
aI159
aI0
aI0
aI0
aI0
aI193
aI132
aI114
aI140
aI0
aI0
aI0
aI0
aI234
aI100
aI135
aI181
aI0
aI0
aI0
aI0
aI67
aI92
aI20
aI89
aI0
aI0
aI0
aI0
aI232
aI233
aI61
aI206
aI0
aI0
aI0
aI0
aI254
aI31
aI213
aI158
aI0
aI0
aI0
aI0
aI166
aI198
aI182
aI95
aI0
aI0
aI0
aI0
aI66
aI122
aI92
aI217
aI0
aI0
aI0
aI0
aI250
aI67
aI99
aI198
aI0
aI0
aI0
aI0
aI119
aI201
aI167
aI34
aI0
aI0
aI0
aI0
aI200
aI60
aI130
aI178
aI0
aI0
aI0
aI0
aI47
aI241
aI214
aI160
aI0
aI0
aI0
aI0
aI174
aI91
aI9
aI5
aI0
aI0
aI0
aI0
aI60
aI39
aI140
aI153
aI0
aI0
aI0
aI0
aI126
aI186
aI175
aI183
aI0
aI0
aI0
aI0
aI14
aI110
aI244
aI111
aI0
aI0
aI0
aI0
aI217
aI110
aI97
aI51
aI0
aI0
aI0
aI0
aI156
aI164
aI184
aI51
aI0
aI0
aI0
aI0
aI184
aI16
aI231
aI100
aI0
aI0
aI0
aI0
aI147
aI107
aI35
aI28
aI0
aI0
aI0
aI0
aI233
aI220
aI189
aI241
aI0
aI0
aI0
aI0
aI177
aI50
aI12
aI23
aI0
aI0
aI0
aI0
aI22
aI52
aI229
aI61
aI0
aI0
aI0
aI0
aI217
aI221
aI0
aI22
aI0
aI0
aI0
aI0
aI169
aI115
aI115
aI51
aI0
aI0
aI0
aI0
aI36
aI237
aI202
aI179
aI0
aI0
aI0
aI0
aI182
aI211
aI81
aI113
aI0
aI0
aI0
aI0
aI244
aI31
aI29
aI255
aI0
aI0
aI0
aI0
aI170
aI17
aI109
aI217
aI0
aI0
aI0
aI0
aI171
aI172
aI52
aI126
aI0
aI0
aI0
aI0
aI131
aI106
aI122
aI78
aI0
aI0
aI0
aI0
aI56
aI136
aI222
aI235
aI0
aI0
aI0
aI0
aI25
aI111
aI114
aI83
aI0
aI0
aI0
aI0
aI134
aI108
aI48
aI185
aI0
aI0
aI0
aI0
aI119
aI114
aI200
aI9
aI0
aI0
aI0
aI0
aI254
aI31
aI81
aI153
aI0
aI0
aI0
aI0
aI234
aI208
aI26
aI95
aI0
aI0
aI0
aI0
aI44
aI191
aI81
aI231
aI0
aI0
aI0
aI0
aI19
aI201
aI61
aI42
aI0
aI0
aI0
aI0
aI167
aI97
aI18
aI203
aI0
aI0
aI0
aI0
aI15
aI23
aI94
aI60
aI0
aI0
aI0
aI0
aI120
aI110
aI225
aI172
aI0
aI0
aI0
aI0
aI198
aI175
aI109
aI54
aI0
aI0
aI0
aI0
aI103
aI39
aI30
aI5
aI0
aI0
aI0
aI0
aI143
aI140
aI121
aI30
aI0
aI0
aI0
aI0
aI23
aI24
aI228
aI13
aI0
aI0
aI0
aI0
aI101
aI171
aI229
aI136
aI0
aI0
aI0
aI0
aI181
aI21
aI253
aI86
aI0
aI0
aI0
aI0
aI176
aI87
aI157
aI77
aI0
aI0
aI0
aI0
aI62
aI39
aI15
aI231
aI0
aI0
aI0
aI0
aI89
aI181
aI235
aI154
aI0
aI0
aI0
aI0
aI31
aI37
aI53
aI93
aI0
aI0
aI0
aI0
aI22
aI11
aI51
aI108
aI0
aI0
aI0
aI0
aI13
aI134
aI219
aI149
aI0
aI0
aI0
aI0
aI59
aI72
aI213
aI58
aI0
aI0
aI0
aI0
aI36
aI163
aI228
aI204
aI0
aI0
aI0
aI0
aI198
aI122
aI189
aI202
aI0
aI0
aI0
aI0
aI77
aI19
aI255
aI75
aI0
aI0
aI0
aI0
aI66
aI227
aI3
aI34
aI0
aI0
aI0
aI0
aI174
aI104
aI30
aI131
aI0
aI0
aI0
aI0
aI216
aI107
aI124
aI153
aI0
aI0
aI0
aI0
aI228
aI72
aI125
aI128
aI0
aI0
aI0
aI0
aI95
aI219
aI46
aI82
aI0
aI0
aI0
aI0
aI142
aI6
aI208
aI194
aI0
aI0
aI0
aI0
aI193
aI55
aI230
aI226
aI0
aI0
aI0
aI0
aI162
aI61
aI152
aI121
aI0
aI0
aI0
aI0
aI20
aI27
aI240
aI19
aI0
aI0
aI0
aI0
aI208
aI42
aI10
aI168
aI0
aI0
aI0
aI0
aI43
aI252
aI0
aI197
aI0
aI0
aI0
aI0
aI61
aI132
aI41
aI22
aI0
aI0
aI0
aI0
aI169
aI75
aI21
aI19
aI0
aI0
aI0
aI0
aI148
aI93
aI155
aI239
aI0
aI0
aI0
aI0
aI207
aI60
aI42
aI130
aI0
aI0
aI0
aI0
aI171
aI211
aI181
aI80
aI0
aI0
aI0
aI0
aI76
aI70
aI204
aI6
aI0
aI0
aI0
aI0
aI25
aI254
aI197
aI45
aI0
aI0
aI0
aI0
aI239
aI1
aI234
aI239
aI0
aI0
aI0
aI0
aI19
aI229
aI240
aI144
aI0
aI0
aI0
aI0
aI168
aI241
aI181
aI238
aI0
aI0
aI0
aI0
aI126
aI127
aI171
aI217
aI0
aI0
aI0
aI0
aI127
aI185
aI217
aI182
aI0
aI0
aI0
aI0
aI23
aI135
aI34
aI113
aI0
aI0
aI0
aI0
aI44
aI35
aI96
aI203
aI0
aI0
aI0
aI0
aI126
aI216
aI250
aI136
aI0
aI0
aI0
aI0
aI111
aI131
aI150
aI134
aI0
aI0
aI0
aI0
aI41
aI144
aI36
aI55
aI0
aI0
aI0
aI0
aI201
aI33
aI21
aI113
aI0
aI0
aI0
aI0
aI52
aI92
aI202
aI106
aI0
aI0
aI0
aI0
aI123
aI198
aI49
aI62
aI0
aI0
aI0
aI0
aI60
aI46
aI147
aI89
aI0
aI0
aI0
aI0
aI194
aI193
aI88
aI17
aI0
aI0
aI0
aI0
aI222
aI111
aI107
aI160
aI0
aI0
aI0
aI0
aI242
aI253
aI181
aI179
aI0
aI0
aI0
aI0
aI235
aI146
aI55
aI24
aI0
aI0
aI0
aI0
aI248
aI136
aI209
aI156
aI0
aI0
aI0
aI0
aI48
aI17
aI99
aI248
aI0
aI0
aI0
aI0
aI235
aI178
aI92
aI59
aI0
aI0
aI0
aI0
aI0
aI50
aI160
aI148
aI0
aI0
aI0
aI0
aI96
aI227
aI78
aI35
aI0
aI0
aI0
aI0
aI183
aI175
aI241
aI48
aI0
aI0
aI0
aI0
aI199
aI125
aI118
aI167
aI0
aI0
aI0
aI0
aI192
aI52
aI241
aI208
aI0
aI0
aI0
aI0
aI54
aI59
aI181
aI69
aI0
aI0
aI0
aI0
aI12
aI198
aI91
aI196
aI0
aI0
aI0
aI0
aI57
aI251
aI144
aI199
aI0
aI0
aI0
aI0
aI200
aI42
aI60
aI217
aI0
aI0
aI0
aI0
aI145
aI110
aI126
aI6
aI0
aI0
aI0
aI0
aI109
aI242
aI105
aI132
aI0
aI0
aI0
aI0
aI14
aI8
aI199
aI50
aI0
aI0
aI0
aI0
aI144
aI255
aI77
aI131
aI0
aI0
aI0
aI0
aI226
aI84
aI205
aI129
aI0
aI0
aI0
aI0
aI174
aI81
aI183
aI60
aI0
aI0
aI0
aI0
aI37
aI188
aI57
aI114
aI0
aI0
aI0
aI0
aI36
aI202
aI4
aI244
aI0
aI0
aI0
aI0
aI197
aI211
aI109
aI33
aI0
aI0
aI0
aI0
aI53
aI50
aI244
aI217
aI0
aI0
aI0
aI0
aI214
aI163
aI211
aI254
aI0
aI0
aI0
aI0
aI142
aI141
aI121
aI202
aI0
aI0
aI0
aI0
aI109
aI37
aI200
aI111
aI0
aI0
aI0
aI0
aI142
aI83
aI161
aI227
aI0
aI0
aI0
aI0
aI102
aI64
aI185
aI152
aI0
aI0
aI0
aI0
aI177
aI101
aI98
aI108
aI0
aI0
aI0
aI0
aI29
aI128
aI172
aI248
aI0
aI0
aI0
aI0
aI74
aI211
aI215
aI207
aI0
aI0
aI0
aI0
aI187
aI220
aI139
aI65
aI0
aI0
aI0
aI0
aI172
aI21
aI181
aI100
aI0
aI0
aI0
aI0
aI47
aI126
aI68
aI30
aI0
aI0
aI0
aI0
aI181
aI188
aI54
aI38
aI0
aI0
aI0
aI0
aI29
aI166
aI49
aI168
aI0
aI0
aI0
aI0
aI45
aI160
aI76
aI98
aI0
aI0
aI0
aI0
aI134
aI176
aI68
aI217
aI0
aI0
aI0
aI0
aI58
aI76
aI62
aI71
aI0
aI0
aI0
aI0
aI107
aI112
aI189
aI199
aI0
aI0
aI0
aI0
aI76
aI211
aI212
aI200
aI0
aI0
aI0
aI0
aI224
aI185
aI68
aI28
aI0
aI0
aI0
aI0
aI209
aI188
aI44
aI122
aI0
aI0
aI0
aI0
aI74
aI13
aI144
aI80
aI0
aI0
aI0
aI0
aI114
aI67
aI24
aI178
aI0
aI0
aI0
aI0
aI143
aI3
aI147
aI109
aI0
aI0
aI0
aI0
aI232
aI12
aI222
aI237
aI0
aI0
aI0
aI0
aI80
aI0
aI213
aI192
aI0
aI0
aI0
aI0
aI30
aI66
aI113
aI170
aI0
aI0
aI0
aI0
aI248
aI251
aI60
aI119
aI0
aI0
aI0
aI0
aI231
aI100
aI69
aI169
aI0
aI0
aI0
aI0
aI67
aI134
aI182
aI6
aI0
aI0
aI0
aI0
aI213
aI66
aI200
aI14
aI0
aI0
aI0
aI0
aI108
aI147
aI83
aI10
aI0
aI0
aI0
aI0
aI120
aI40
aI6
aI30
aI0
aI0
aI0
aI0
aI234
aI126
aI170
aI202
aI0
aI0
aI0
aI0
aI31
aI139
aI59
aI149
aI0
aI0
aI0
aI0
aI36
aI150
aI143
aI123
aI0
aI0
aI0
aI0
aI244
aI32
aI201
aI201
aI0
aI0
aI0
aI0
aI140
aI243
aI223
aI180
aI0
aI0
aI0
aI0
aI97
aI34
aI79
aI78
aI0
aI0
aI0
aI0
aI198
aI190
aI45
aI246
aI0
aI0
aI0
aI0
aI83
aI228
aI23
aI114
aI0
aI0
aI0
aI0
aI19
aI77
aI14
aI236
aI0
aI0
aI0
aI0
aI222
aI61
aI172
aI45
aI0
aI0
aI0
aI0
aI38
aI57
aI181
aI113
aI0
aI0
aI0
aI0
aI49
aI172
aI11
aI56
aI0
aI0
aI0
aI0
aI24
aI227
aI71
aI234
aI0
aI0
aI0
aI0
aI119
aI4
aI183
aI167
aI0
aI0
aI0
aI0
aI133
aI74
aI16
aI77
aI0
aI0
aI0
aI0
aI212
aI23
aI22
aI134
aI0
aI0
aI0
aI0
aI56
aI142
aI3
aI171
aI0
aI0
aI0
aI0
aI198
aI128
aI160
aI107
aI0
aI0
aI0
aI0
aI158
aI141
aI87
aI211
aI0
aI0
aI0
aI0
aI125
aI14
aI254
aI45
aI0
aI0
aI0
aI0
aI68
aI119
aI248
aI185
aI0
aI0
aI0
aI0
aI1
aI182
aI179
aI222
aI0
aI0
aI0
aI0
aI181
aI66
aI125
aI167
aI0
aI0
aI0
aI0
aI41
aI165
aI23
aI104
aI0
aI0
aI0
aI0
aI139
aI153
aI127
aI131
aI0
aI0
aI0
aI0
aI221
aI221
aI226
aI48
aI0
aI0
aI0
aI0
aI88
aI17
aI8
aI82
aI0
aI0
aI0
aI0
aI61
aI33
aI40
aI37
aI0
aI0
aI0
aI0
aI25
aI58
aI105
aI96
aI0
aI0
aI0
aI0
aI63
aI208
aI113
aI75
aI0
aI0
aI0
aI0
aI254
aI173
aI251
aI128
aI0
aI0
aI0
aI0
aI167
aI100
aI116
aI105
aI0
aI0
aI0
aI0
aI48
aI127
aI28
aI157
aI0
aI0
aI0
aI0
aI72
aI163
aI58
aI148
aI0
aI0
aI0
aI0
aI195
aI253
aI204
aI201
aI0
aI0
aI0
aI0
aI163
aI131
aI117
aI37
aI0
aI0
aI0
aI0
aI36
aI145
aI30
aI47
aI0
aI0
aI0
aI0
aI253
aI169
aI120
aI156
aI0
aI0
aI0
aI0
aI148
aI205
aI240
aI29
aI0
aI0
aI0
aI0
aI203
aI183
aI1
aI231
aI0
aI0
aI0
aI0
aI39
aI21
aI18
aI178
aI0
aI0
aI0
aI0
aI183
aI37
aI75
aI187
aI0
aI0
aI0
aI0
aI24
aI250
aI165
aI2
aI0
aI0
aI0
aI0
aI33
aI194
aI234
aI4
aI0
aI0
aI0
aI0
aI223
aI106
aI93
aI87
aI0
aI0
aI0
aI0
aI59
aI147
aI101
aI74
aI0
aI0
aI0
aI0
aI11
aI164
aI19
aI74
aI0
aI0
aI0
aI0
aI0
aI218
aI58
aI40
aI0
aI0
aI0
aI0
aI200
aI189
aI196
aI176
aI0
aI0
aI0
aI0
aI242
aI5
aI90
aI60
aI0
aI0
aI0
aI0
aI59
aI41
aI179
aI254
aI0
aI0
aI0
aI0
aI40
aI227
aI6
aI78
aI0
aI0
aI0
aI0
aI123
aI184
aI185
aI128
aI0
aI0
aI0
aI0
aI137
aI71
aI26
aI122
aI0
aI0
aI0
aI0
aI76
aI50
aI113
aI82
aI0
aI0
aI0
aI0
aI41
aI205
aI188
aI188
aI0
aI0
aI0
aI0
aI84
aI28
aI220
aI239
aI0
aI0
aI0
aI0
aI31
aI40
aI123
aI244
aI0
aI0
aI0
aI0
aI13
aI3
aI99
aI99
aI0
aI0
aI0
aI0
aI177
aI60
aI66
aI204
aI0
aI0
aI0
aI0
aI26
aI204
aI47
aI93
aI0
aI0
aI0
aI0
aI30
aI122
aI98
aI21
aI0
aI0
aI0
aI0
aI93
aI41
aI59
aI103
aI0
aI0
aI0
aI0
aI36
aI150
aI106
aI100
aI0
aI0
aI0
aI0
aI44
aI166
aI27
aI5
aI0
aI0
aI0
aI0
aI254
aI186
aI43
aI218
aI0
aI0
aI0
aI0
aI215
aI37
aI154
aI174
aI0
aI0
aI0
aI0
aI139
aI149
aI6
aI255
aI0
aI0
aI0
aI0
aI80
aI226
aI252
aI42
aI0
aI0
aI0
aI0
aI23
aI7
aI152
aI220
aI0
aI0
aI0
aI0
aI40
aI221
aI164
aI112
aI0
aI0
aI0
aI0
aI135
aI248
aI159
aI125
aI0
aI0
aI0
aI0
aI53
aI223
aI56
aI219
aI0
aI0
aI0
aI0
aI210
aI205
aI152
aI29
aI0
aI0
aI0
aI0
aI176
aI3
aI200
aI203
aI0
aI0
aI0
aI0
aI4
aI171
aI11
aI129
aI0
aI0
aI0
aI0
aI82
aI166
aI92
aI228
aI0
aI0
aI0
aI0
aI89
aI198
aI247
aI221
aI0
aI0
aI0
aI0
aI80
aI183
aI227
aI71
aI0
aI0
aI0
aI0
aI180
aI43
aI73
aI183
aI0
aI0
aI0
aI0
aI3
aI65
aI22
aI46
aI0
aI0
aI0
aI0
aI0
aI0
aI0
aI156
aI92
aI150
aI192
aI63
aI0
aI0
aI0
aI200
aI145
aI61
aI186
aI63
aI181
aI236
aI111
aI182
aI174
aI195
aI221
aI63
aI0
aI0
aI0
aI0
aI0
aI0
aI0
aI0
atRp22
I0
(L5048L
t(L1L
ttRp23
sbsS'train_steps'
p24
I99950
sS'max_grad_norm'
p25
F127.30744963584287
s.