(dp1
S'random_state'
p2
ccopy_reg
_reconstructor
p3
(ctextmorph.edit_model.training_run
RandomState
p4
c__builtin__
object
p5
NtRp6
(dp7
S'np'
p8
(S'MT19937'
p9
cnumpy.core.multiarray
_reconstruct
p10
(cnumpy
ndarray
p11
(I0
tS'b'
tRp12
(I1
(I624
tcnumpy
dtype
p13
(S'u4'
I0
I1
tRp14
(I3
S'<'
NNNI-1
I-1
I0
tbI00
S'\x94\x0e\xe8\xdb\xc4jJ\xcaY\x81us\x1c\xa3\x89\x7fT\xa0\xf5\x95\xbd$\xf3a\xe7|\xb9s\x9d\xf6s\x18\xf37&}\xa7^B]C\'u\x05\x0e\x87\xde\xcf\x1b\xd7\xa0T\xc3\xbe~\x95\x9a\x99\xde\x7f\x8aU\xbch\x0fu\x9doa\xf9\xcb\x15a9\xfb\xe9J#\x08\xf0\xf7n\xee}k&\xab\xab1\x8d,t\xf1\xf1*\xc6R.8]\xe0XP\t\xe9\x97\xf2\xbfd\x8f\x18\x844\xebj\xff\x9dF\xc7\x91\\\xd5\xd9pT\xfa\xfb\x02\x12o\xf1\x80D\xe4\xdf\\\xe4V\n\x86\xa7\x13\xb3\x98"p\x99`\x14\xa0\x96;\xa0\xd1v^\xe7\xf3\xc8\x8e\x97~\x8b\x91y\xc9\xc3huA\xf6\x89s\xbb/Y\x80u\xd2\xbb\x17\xc0\xb8\xc9\xe1\x86x\xb72\xc81\xce`\x82x\xb8\xe1\xdcF\xab,\xea\x97\xc4j\xba\xed\x8b@\xcd\x15!\x8a\x8aM\xb59\xce\xa8\xa9n\xab\x97\xe8\r\xc2\x12\xf6\xed\x80o\xe4\x96\x8f_\xa28\x176+2\x02\xac?\x80\x99i\xeak\xfb\x9co\xd0>.l\xd1\xa0\xc1\tLCxK)[ \xa2\xceF\xaa\re\x8b\xe9\xa5\x8a\xac\xc58~\x99B8\xb4}\xb4\xea\xc9@Z\x8b>\xb2p\xdb\x81\x12\x1a\xa0\xe9\xfd\xb2)\xd1!}\x0e\xb1\x08\x15\xc0\xe0\x84-\xca}\x9d\x86\x1b\x17\xda\'\x93`\xe6\xc3)\xf1\x8c\xab\xdav\xc8B\xf1\xb3:;L`,\xcf\x81\x00\xb8\xd7\x891j\x93\xe4b\xff\xf0\xee\xfa\xc4\xca\xbf}\xff\xb0\xfd\xb5\xdf\xd7=\x03\\k\xad+\x9dXW`\x84j\x01\x7f\x97\x9e\xcf:`M\xce\xb0:-NB4\xe8 \xef\x9e\x11\xebx\xb3\xc8\xa9\x0c\xb0T\xc3\xcb\x1d\xdd\xa6\x1a]XV3\x00xe\xe2(\xb4\xf5%\x01i\x85\xf5\xeb\x06\xe9t\xc8\xc5\xd6\x94V\xa00\xf6k\xdc\xf4\xe8H\xe8`\xb1\xfe\x00W\x1a\'\x81\x00aN\xf5y\x13\x9d$\xd3\xfb3\n_\x18\xe6\x0e\x02\xce\t\x9f\xf8*[\x9at:C\x1aq\x08\xc9\xc9\x05KB\xf3\x176>\x19*s6\n\xc0\x92\xee&\x0b\xfd8\xffV\x82\xbbPq\x93+:\x19\xc6\xdb\xee\xcb\x9a\x1fe@\xaf\xff\xb7\x183o\xee*\x1e\x8e_\xfc\xa6\x9b\xde\x1b\x98H\x83\xfaKq\x0b\xe7\xe4\x93\x00n\xcd\xbd\xbb\x97<~\x94n$\xaaq\xf6\xf2\xabS\x12\x154\xbe}\xa4\x12\xc6\x8d\x03\xd0\xea\x19\x13\x8e3\xed\x90\xe5\xef9\xd3a\x9e\x9c\x8e\x9b\x9f\x02\x14\x9a\xdf\xd9\x0c\x93x\xf2h0"\xd5\x16\x1a\xad\xb5\xbaY\x7f\xb1\xb9\x14\xbaT\xa9\xdb0l\xd8\xe3\xf9\x99%)\x826\xdb\xd6\xe5\xa6\xf2\x89\xba;\xd8\xdf\xa6\xeb\xbcy\x80vSVX\xcd\xf9\xffI\x05T@R\xaa\xcc\xbe\xde\x08Q\xac\xaf\xaf\xf2\x1a\xf8A\xc7\x81\x17\x96\xdb\x18\x13\r\xda\xd1\xedQ\xf9\x8eo\x1c?\x1f6\xb2\x91\xfd@\xd9\xdb\x1eiy?D\x8e\xe0\xab\xab\x19\xe8\x81\x8aBk\xd7\xbe\x10\xd1\x12\xc9\x9e\xb5>\x91JG%\xdf\xca\xadiv\x8c\\\x7f\xb8O7\xb3\x14y\xbb\xf9\x19\xee\xbd\xb2\xfa\x00\\\x85\xe6s\xb2\x07R>\xb64\xcc\xbc\xd9~r\xa15#3b#\'\xa6\xcc\nI\xf2\xf6\x83\xe1K\xae\xf1Xy\x1c\xf8)\x19T\xc9\x95d\xa9\xe5f\x83\xe1\x7f}\xb5+\xa8[\xcb\xa2\xd6W\xbc\xf30XqlF<\x0c\xf2)\xf1\xa3\x97K\xa1B\xb8,\x97E\xf8)\xe4\xa5\xfe\x0b\x1d\xa8\xe1y\xcf\xd1#\xae\x0cd\xea(Yi::\xb8\x7f\x12\x1c\xbcI\xca\x04\xf4\x13h\xbc(I\x04\xccP\xe0\xc1\xc4\xe7\xe3\xad\xa2"\x8d?\xfc\xf52\x83\xcc\xe1\xbc(t\x02\x97\x168m\\\xe88M\xc7\x01\xaa\x04\xd6\x00L\xdc\x1e]AE\x81\xfd\x8d\xea#\x13\x0bF\xf9\x98\x03wmQ\x9bf\x8e@l\xf4\xb9}\x88\x043\nO7\xb0\xcd\x00\xbe!lTO|\xa2\x999YL@tyK\x07\x9au\x10\xb9\t\xdf-\xb2{\xa9\xe2C\x9a\xfb/\x17Cq1\x83:\xdf\xca\xc7\xd4/y!W\xa3\xb9p\xd53\xa2\xfbB3\x99V%W{\x12\xb2i`R\xce\xc7\x06\x9c\x83\xc5\x95\xd0k%\x12\x162O\x8b\xba\xcd\xe2\xca\x08\xdf%\xdf\xea1\xa3\xc2{\xe7>(\xf1|\xf1iz\xe3\xc5><\x00\x16x\xc2-\xab,\xfd\x101\x06\xaaL\xe0\x1e\xfe&\xef\x7f\x07\xb6\x99\xaexZ\x12\x14v\x01\xedV\xef\x04\x17\x89\x1c\x1e\xd30\x1f\x80v7\xb6\xa6\x8c\xc9\x883B\xca\x8c\xeb|.\x9a\xb1-\xdb\xc0/*\xb0R\xa0(\xd9l\x95\xa3\x85Z\xaa\x1a\xab\xe20+\x9f\x11\xde\x8a\xeb\xf5\xecN\x8dT\xab\x80\xc9\xb1\xfc\x80\x17&\xf5\x98>\x8b\xb7\xc3\xd8\xa6\n#\xff\xf2\xd88rh\xb0\xe2\xe9\xe8(\x05!\x7f\xd8\x87\x18\xb1\xd2\xe1\x9bYy\x16\x06\x1f\x99\xe4\x13\xa3\xf7\xf6\xf2\xa0f\x9e\x1c\xd2\xb3MtA\x7f\xe4]j\xa2\xed-.u>U\xb7\x02\x10\r"\xde\x81\x05\xf5V\xd6\xd6\xbe|ZC\x87qJ\xe4GIsP\x1eb\xbd2\x00\r&\x7fdA5\xad\x99g%0\x0b\xf6\x07\x887f\xca\x90\x8d\xd9?\xb7\xf5\x1e\xdf\x1f\xc9\xfe\x8b\xd4\x9d\x9e\x95\x7f\x1e,\x9fN\xff\xe0\xfc\xd8\xa6\xec\xa2\x89B\xc2\xa1\xdb\x97[\x8bK\xa2\x9ci\x86_\xd4\xe4\x15=\xad\t\xa8\x17\xa3\xef\xafzj\x93Eh\xb2\x15\xa4^\x8cRf\xbdA?\n5\xa9\xd0\x80\t\x89\xae s\xa9]\xca&\x07\x14\xfft\x85\xdf/%>\xa5:s\xac\xc5\xcf\x04`.\xac^v\x1cN\xdeTq\xe3\x8d\xbby\t\xa2\xee\xe2\xdf\x90A.\x1b\x1a)\x89\x1ai\xe7\x06\xf7{\xf5|I g\xb8_fe\x94s\x07\xa9\x95@\x17\xa9a\x8c\xd8\xe8\xc5\xed\x95H\x84\x8d\x89\xd66\x04\xaa\xb3\x9d\x1f\xf4ex>r)X\r3\xb0\xcc\xbb\x7fd\xda\xefP\xd0\x80t\x15\x93\xbf\x93p\x0fO\x0e\xd7\x873$\xe4\xd1\x13\x1dmb\xb1\xb8W\x95\xf2\xe8\x8f\x14\xb7\x8a\xf06\xf8\xd9\xdd\x8a\xab\xacI\'\x8c\xe1\xe2\xd8\xac\xfcg\xa1\xf5\xa0\xcd\xc1\x1b\x9b\xe2\x844\x9a5\xec\x16\xf9\x0b\xf9X\xcf\xbb\x0b\xf2\t\x19}\xf8@\x0f\xcb\xc6VI\xeb$\xc25qR\xed\xda\x04\xd1)\x13\xd7F>\x96\x1a\\\xf8\xb6%\x97{O+2\x84\xa4\xe38\xebn\x81\xd1!\xfe\xa3\x9b\x08C\x00l\xd0\xe4"Nh\x85|\xcf\xf0\xef\xd1\x9b\xf9@F\xef\xf3\xdb\xcaT\x0bO\xd8\xcc\xe4\xc9\xe5_v\x14\xdb \x16\x1b\x87\xad\xc9\x86\xba\x87\xfe\xb4\x91\xd9-\xd4k\x93/\xa2\xd9\xce\x8e\xff na\n\xf6\xc0zgO\xac\xd2\xaf0w\xa7hY\xf1\xf2H\n\xf6\xd2\xac\x9b\xcf\x8b\x8fp\xab\xa9\xd5\xd6\x99Q\xce\x01.\x0b\x1bA{\x08\xe9pMnX\xa6\x88\xf5\xf9S\xf1\x97\x1b\xd5\x93\xa6\xff:\x8b\xe5\xfc#"\x98\x852\x96\xe3a\x8b\xd9\x01vq4p\xea\xf5\xf2\xf8CU/\xedi\xf8*F\x7f\x98\x85\xed\xb9\x9a\x1f\xd8\xcf`\x1d\xf1s\x8f\xbf\x16\xdc\xccu\xea\xf0\x03\x8a:\r\x83\xf2\xe5\xb6s\n\x1f\x81e%\xca\xe0\x1ft\xac[d\xb2\xc3\x1a\x14?h(\\1\xd3\x814\xf1#\xba\\G\x1a{\xebbR\xa2\t;\t\xcdF\xb8\xed-\xae\xeb7\x9f\xbd\xb0y\xffk\xc8\x1cBY\x04\x7f3*\xfe\xcd\xf7\x17\x11|\'\x9c\xd0v4\x14\xefx\x85e\xbby\xe7\x04\x8fn\x8dD\t\xce\xb0\xd5\x8e\x89\xc3\x88\x01\x17\xcf=\xfa\xa9e\xe1\xbe\r\x96\x10U\xb1\xe0-7\xda\xe4=\xcc\xe84*\xc2\xec\xa5\xd8\xa6Om\x1f\xe1"V@\xffo\x0b\x14i0bu`\x91\x14 Q#\xd6S\xf9\xc3v\xec;\x12\x8c5\x1b\xee-j\xb0\xe7\xa3\xa6m]B\x15\xc9Y\xd6\xb6 \x1b\xa6>j\xe6\xa1\xcf\x80\x8e\xaa\x06)\xf1\\c\xc1\xa3\xfb\x85z\xc8{\xbe\xa3\x9f\xb4/@0\xf3fc-Wru\x99*CLS5\xdc\xc0j}\xdey\x0cn\x16\xf8\xd1QE\xdb\x16\xcf\x8d\xa3\x94&\x08\'\xbd\x97`E\xf7\x8a,\xd9\xf1\x00\xb5\x06\xc6Y\x9b\x057\x17l\x93Q\x83zOR\x9e\xce\x92\x19\xd9i\xa6\xfeQ\x1cz\xf8?\x85\xf9\x87M1\xe7\x84\x1f\x01\xf8\t\x90U>}\x81\x9f\xc5\x9d\x1d\x04w\x8eS!R\xd2\xb7+4\xa2\x8d\xb3\xd8\xd6\xceQ\x1f\x86\x07\x02\xd1)0n0\x89\r\xfd\xc6\xe9\xe6\\\x10\xf5p\x93;\xe2\xfb\xa91\nE\xd1\xdd\xae\xa7\xdat\xa7\xeeT\xe6W\x8c\xd4Y\xafv\xbf\xe7\xbe@\x9e`r\x10J\xd4@\xe6\x94\xa5-\\<Kk1\xc0\xb6^q\xe4\xbf\xe2\x1e\x19oh\xb1\xb2t\xe7g\xab+\xb5\xa1|\xfc\xe5\xda\xcd\xb1&\x80D\x10\'9)\xda\x18?\xcd!jA\xb3b\xc6VK\x92h\xd1M\x90\x82\xca\xf6\x0c\xa0\xf1)\x93\xf8o\xb9\xed\x16\x8b\x13\xa8#\xbbd\xe0\xf8D\xfdJ\xcbW\xa2\x8fzF\xc7^\xd90)v\xdc\xfd\xdc\xe9?\xc9h\x12\x17];\xa0\xc2(!V\xcd\xd8KZU\x88\xac\xc1#\x0b\x83\xb9\xe6H\x0e\xe7gC\xee-Q\xa8\xc2\x10KQ\x1e\xf8\xdc~\xb9,h\x8em\xea\x99\xcb\x85\x1d\xd0yQ\xe9\x8a?\x85\x8by[z\xc5=\xcd=~K\xcd\x9eF\xea\x1f?\x13\xcf\xe4\xc9\xc8H\'.G\xb47\xfeN\xfd\xac\xddR\xf9$\x8f\xb2YZ\xbeB\xe3[\x04F\xa9|p\xf4\x8a\xb1\x0f\xcd\xc8bW\xfc\x16m[\x803,\x89]\x9d\xce2;\x0b<\xe5\x1c_\x10+\xf0\xc8s\x85-\x8c~50R\xa0\x9d\x93\x1e\xc5\x80:w\x9e\xa1P\xad;}\xcb\xd3\xf6\x9c\xf2\xc0m\xc1o\x84*\x01+\x08\\\xd3+\x8c\xfa\xc7\xa3\x1d\x8a\xb5\x06\x98l\x1f\xd4!\xd9kq\xe0G\xfd\x8dly\x060\x9e\xba\x1e\xe3\xb3j\xd9\x0cO\xa02\x90u\xf5<\xa4j\x19\xbd\xd5\xdd\xbc\x97\xb6\x82\xf0\xb1\xa3`\xe7Y\xd7\x86\x81dn\xfc\xa9\x08\n\xf8l|\xe8\xf9X\x9d\xa3\x8c\xca+\x0b\x84N$*4\x0fQb\x99\xf5F\xe02{ \xf0 +\xee\xb1\x0f?ITZ\x9d\x19L59wR4\xb6\xc7\x1c\xa1\xab\xd0\xe2\x89\x88\x01HiG\xa9\xe3\x1boUU@/\xcd\xaa=\xeb'
tbI115
I0
F0
tp15
sS'py'
p16
(I3
(L1728673542L
L3936548444L
L352496551L
L642119671L
L1109221745L
L3249547712L
L1213928671L
L1888900184L
L2291793806L
L924381543L
L3078828961L
L291738987L
L250817821L
L3684835613L
L2121611162L
L1949107004L
L3811433427L
L970478418L
L2706737865L
L1648545724L
L1688078853L
L1990784125L
L1277434300L
L2969629364L
L2017299776L
L2440800713L
L3515968607L
L2812357256L
L813895397L
L3489856752L
L2064163847L
L4177739656L
L314444676L
L3990537330L
L1283267358L
L1621047347L
L535171227L
L1962313114L
L3393395256L
L3680971923L
L2123906351L
L4264252385L
L1721450807L
L2049861373L
L3294909296L
L1978928822L
L3192723863L
L1332247422L
L776397448L
L790069462L
L2031065344L
L3251853347L
L564278718L
L4215469319L
L610505894L
L3674903283L
L2087826039L
L2598592454L
L1792631158L
L1855970752L
L3526810216L
L2465466039L
L2662699843L
L2121434178L
L4138042792L
L2819152323L
L2100195331L
L3442522504L
L2208660603L
L4180666267L
L3515687661L
L112918154L
L1627259657L
L3986594783L
L929517391L
L3266661901L
L4234312559L
L1439969569L
L22075968L
L412240797L
L2303423261L
L1201277497L
L3847857766L
L1770330560L
L1094924672L
L2379146582L
L2974139678L
L1988159833L
L3651239137L
L3125804184L
L3690724290L
L883565968L
L2963343L
L512678746L
L4261811603L
L822386335L
L787334795L
L2152723046L
L1044430700L
L2934300588L
L567486897L
L2725175564L
L2875582270L
L1040833842L
L2209059909L
L1648525109L
L564502099L
L4083733542L
L3833368221L
L629992529L
L4055353315L
L471395092L
L446091763L
L3159161751L
L467680545L
L881739969L
L613766091L
L580592448L
L482814855L
L198674355L
L1075060975L
L2470280391L
L1530363046L
L127297426L
L270370728L
L2149020282L
L3520427805L
L2529407641L
L1704399309L
L3439571462L
L2695433692L
L390254552L
L2987797903L
L3854146131L
L2832909606L
L2104289078L
L2557517506L
L1597705418L
L1631671523L
L4292032579L
L3749379688L
L4146435674L
L1827793863L
L1962718326L
L2441654205L
L2281516339L
L382877208L
L1267358307L
L3989988968L
L1799731657L
L3774728517L
L1500925292L
L1992248154L
L2332893716L
L2095723478L
L2098748442L
L2965681658L
L1809845112L
L23495652L
L742006490L
L712425569L
L3129588264L
L2505479887L
L4223200409L
L4007531034L
L2894774141L
L2478518115L
L2985531879L
L3662967554L
L3165580510L
L1322023051L
L411458179L
L1843558067L
L3817793921L
L2553917184L
L2117547251L
L3723137755L
L3134922894L
L2236967745L
L3695183624L
L2027933977L
L2994842287L
L1788707190L
L3756959497L
L613744165L
L3686279480L
L3606879623L
L2363506619L
L3567456764L
L1619404753L
L2276848825L
L1889302090L
L2394619096L
L3753569846L
L3884243307L
L3812460659L
L3910769601L
L3264309271L
L725037488L
L2798504694L
L3490309371L
L3266810296L
L3370812442L
L4007442811L
L3573167010L
L3591603783L
L3601961591L
L169751517L
L200649615L
L2965997507L
L2692236589L
L676139262L
L3542397092L
L2684978270L
L3196899089L
L863917791L
L3760769502L
L2913602673L
L1058899441L
L3975576375L
L461462787L
L1426715695L
L2459824857L
L4210716590L
L1284082711L
L762639003L
L2384765029L
L3128370963L
L1387572539L
L3433272186L
L2117111753L
L1621686520L
L1107430207L
L3510484126L
L3925154116L
L184390601L
L1455595264L
L1534883681L
L2702588306L
L1510611539L
L3326171419L
L2818131413L
L4050541124L
L1399364122L
L492413738L
L3630189137L
L1784318121L
L3322344519L
L1567318268L
L1235038018L
L555534889L
L4006246029L
L3482512584L
L654579797L
L846760294L
L379552056L
L2182896718L
L1448112882L
L115328422L
L967726847L
L433155591L
L2628345919L
L629190836L
L240852040L
L1026144567L
L3039813603L
L2096177169L
L905613833L
L2553965264L
L3783363928L
L3702824099L
L1049058358L
L1602972155L
L3250323490L
L2328632607L
L3936366670L
L518001636L
L1673357159L
L2218856041L
L317807731L
L2223206368L
L2010177614L
L1298989900L
L2977951685L
L2022306794L
L305743011L
L3888270942L
L961761866L
L3727243637L
L58398304L
L1827682595L
L2065514299L
L986026920L
L2424415968L
L4159099401L
L3195783715L
L2943475033L
L4054237166L
L1881029392L
L4209279336L
L2974290837L
L53191887L
L614787366L
L3139781729L
L112183412L
L3962413363L
L3244910404L
L3036974880L
L1255951372L
L1832870407L
L1801382794L
L4175214784L
L1623291317L
L3374261760L
L3753970034L
L573598288L
L250302797L
L1871847463L
L258566163L
L222407429L
L3259745793L
L511985401L
L166125942L
L1070139358L
L279458680L
L4063453712L
L2971667614L
L1290791616L
L1369297285L
L33876995L
L1548008794L
L1873140560L
L3399731153L
L1956387890L
L3721283047L
L4020694336L
L937075609L
L3390388404L
L2285887691L
L3197015918L
L3011696266L
L4250725135L
L1728199520L
L512540002L
L476691407L
L3263609827L
L594143929L
L2149151098L
L1526310724L
L2422096199L
L1558130214L
L251484769L
L2904926365L
L1127239158L
L4011380479L
L161325114L
L2509651710L
L2466789770L
L1872744595L
L511242548L
L2326648887L
L3217963159L
L2803668843L
L1719383084L
L4145300668L
L1962361983L
L3131123884L
L3510193359L
L1048614793L
L2784981339L
L4000886673L
L1462978580L
L2510535580L
L1216511932L
L4215685655L
L600499149L
L458799365L
L4076294161L
L2728472629L
L3520977996L
L2137343465L
L3160844698L
L4231769734L
L2738148010L
L856099113L
L300048183L
L3571864559L
L178918160L
L1257727021L
L453965255L
L3712227202L
L3147167684L
L1755809612L
L1843584109L
L2002900485L
L3775636269L
L4275480565L
L4293482712L
L1709123982L
L2943083492L
L2608723694L
L2766685116L
L4014483552L
L2267810899L
L3778477249L
L2114218583L
L3622791575L
L2586197491L
L312262248L
L4120604645L
L4088709995L
L3807024193L
L3548640729L
L1563822950L
L3513673719L
L1248008386L
L2320210102L
L1340783932L
L1476926918L
L2524841316L
L3935611316L
L3375519189L
L2596247254L
L3210494011L
L3504200133L
L3212077348L
L808941817L
L2946250599L
L816665047L
L4108277678L
L2686738416L
L54806165L
L1790479032L
L4148074537L
L2396147077L
L3936591411L
L1072262481L
L1988158709L
L1926190008L
L3716676348L
L2440294450L
L3767587454L
L1881291034L
L1605320749L
L1233432648L
L3723787260L
L1222204507L
L2161167045L
L3694192161L
L578186743L
L1664899619L
L2098531554L
L1625366785L
L3269759688L
L4248190825L
L3979726010L
L843789302L
L531150676L
L1227099782L
L937205989L
L4292238959L
L2489927159L
L2261320024L
L2089338316L
L3099100043L
L34279157L
L2712591097L
L3042097261L
L2393414255L
L3239204023L
L2767384059L
L2250262756L
L2649540129L
L2681818896L
L3642790821L
L2222333061L
L789494522L
L754637701L
L445190338L
L3873978731L
L1089815405L
L3574807859L
L3316508994L
L3753069494L
L1832602229L
L407844129L
L1212015354L
L2204963963L
L2582239086L
L789967011L
L4104372682L
L265084030L
L2437017300L
L485983441L
L2900187358L
L2862116093L
L3997643308L
L2119521609L
L3313800453L
L2373344575L
L3807769343L
L261613127L
L1770238587L
L788961579L
L3598057070L
L2249175592L
L3610782926L
L3147523650L
L2150615400L
L4194120880L
L2410169979L
L176043950L
L2118302438L
L1713702231L
L1684731527L
L4004704506L
L2746040473L
L2419904454L
L293083216L
L1057039825L
L2054949971L
L4073030407L
L4203468187L
L1009519489L
L2724387049L
L3961521023L
L2862037014L
L1795488708L
L547781065L
L3487281480L
L2164804323L
L1861674500L
L4151507779L
L37745646L
L4219936879L
L3048890191L
L196831636L
L2408474158L
L2234129704L
L435469671L
L2489452421L
L109926184L
L3552160448L
L3195626460L
L1185544420L
L788464143L
L2941792538L
L737038948L
L3617398083L
L1885661072L
L562434046L
L1485998226L
L3409131715L
L3671258318L
L1007767974L
L224068816L
L632795440L
L1572994657L
L1838402964L
L452520161L
L1931859502L
L3043250116L
L1913067192L
L1789331952L
L1281860917L
L2778309708L
L3886510899L
L1827159880L
L2982396743L
L2062583591L
L1446039718L
L1351979998L
L2086229295L
L1642200973L
L2732534334L
L2107966845L
L545602144L
L4204378138L
L3732756193L
L3256826320L
L1924967518L
L1498493127L
L605689585L
L1764257671L
L15932725L
L2048912808L
L2877588243L
L1554806668L
L1504575029L
L1676113247L
L3467669997L
L2291921972L
L1320467672L
L2228958800L
L1579171495L
L256527812L
L1400894850L
L3222792262L
L3107079470L
L3758511272L
L2914904640L
L374677227L
L3174338309L
L722818382L
L2397427083L
L33086432L
L3252820862L
L2738233250L
L3330089419L
L1267416094L
L3400015714L
L1095326231L
L774825724L
L3107898064L
L2408703749L
L1788165849L
L2590583933L
L630059417L
L1784102223L
L960901038L
L1110849884L
L3622949476L
L3010285522L
L3444710518L
L348L
tNtp17
sS'torch'
p18
ctorch._utils
_rebuild_tensor
p19
(ctorch
ByteStorage
p20
((lp21
I0
aI0
aI0
aI0
aI0
aI0
aI0
aI0
aI73
aI1
aI0
aI0
aI1
aI0
aI0
aI0
aI40
aI1
aI0
aI0
aI0
aI0
aI0
aI0
aI1
aI94
aI175
aI93
aI0
aI0
aI0
aI0
aI181
aI163
aI151
aI251
aI0
aI0
aI0
aI0
aI190
aI154
aI218
aI243
aI0
aI0
aI0
aI0
aI19
aI108
aI168
aI216
aI0
aI0
aI0
aI0
aI249
aI8
aI75
aI231
aI0
aI0
aI0
aI0
aI67
aI168
aI231
aI133
aI0
aI0
aI0
aI0
aI56
aI203
aI125
aI122
aI0
aI0
aI0
aI0
aI114
aI126
aI109
aI243
aI0
aI0
aI0
aI0
aI46
aI188
aI16
aI146
aI0
aI0
aI0
aI0
aI14
aI235
aI85
aI35
aI0
aI0
aI0
aI0
aI227
aI97
aI78
aI11
aI0
aI0
aI0
aI0
aI167
aI231
aI201
aI193
aI0
aI0
aI0
aI0
aI113
aI197
aI125
aI255
aI0
aI0
aI0
aI0
aI254
aI11
aI102
aI235
aI0
aI0
aI0
aI0
aI99
aI137
aI152
aI252
aI0
aI0
aI0
aI0
aI154
aI175
aI145
aI164
aI0
aI0
aI0
aI0
aI53
aI57
aI172
aI142
aI0
aI0
aI0
aI0
aI196
aI138
aI126
aI170
aI0
aI0
aI0
aI0
aI181
aI248
aI253
aI151
aI0
aI0
aI0
aI0
aI244
aI30
aI186
aI39
aI0
aI0
aI0
aI0
aI167
aI250
aI3
aI43
aI0
aI0
aI0
aI0
aI158
aI139
aI201
aI159
aI0
aI0
aI0
aI0
aI155
aI119
aI135
aI155
aI0
aI0
aI0
aI0
aI67
aI27
aI209
aI240
aI0
aI0
aI0
aI0
aI100
aI252
aI160
aI95
aI0
aI0
aI0
aI0
aI8
aI150
aI9
aI54
aI0
aI0
aI0
aI0
aI141
aI164
aI93
aI153
aI0
aI0
aI0
aI0
aI0
aI168
aI72
aI250
aI0
aI0
aI0
aI0
aI43
aI187
aI59
aI29
aI0
aI0
aI0
aI0
aI76
aI208
aI161
aI112
aI0
aI0
aI0
aI0
aI195
aI124
aI158
aI54
aI0
aI0
aI0
aI0
aI122
aI251
aI148
aI87
aI0
aI0
aI0
aI0
aI249
aI96
aI164
aI148
aI0
aI0
aI0
aI0
aI175
aI83
aI126
aI121
aI0
aI0
aI0
aI0
aI174
aI86
aI229
aI15
aI0
aI0
aI0
aI0
aI164
aI226
aI219
aI241
aI0
aI0
aI0
aI0
aI79
aI196
aI81
aI193
aI0
aI0
aI0
aI0
aI159
aI156
aI127
aI96
aI0
aI0
aI0
aI0
aI55
aI206
aI65
aI117
aI0
aI0
aI0
aI0
aI123
aI110
aI205
aI8
aI0
aI0
aI0
aI0
aI218
aI88
aI115
aI136
aI0
aI0
aI0
aI0
aI223
aI123
aI88
aI253
aI0
aI0
aI0
aI0
aI43
aI21
aI63
aI145
aI0
aI0
aI0
aI0
aI55
aI9
aI107
aI147
aI0
aI0
aI0
aI0
aI80
aI153
aI180
aI241
aI0
aI0
aI0
aI0
aI243
aI90
aI229
aI15
aI0
aI0
aI0
aI0
aI13
aI248
aI151
aI75
aI0
aI0
aI0
aI0
aI39
aI44
aI168
aI36
aI0
aI0
aI0
aI0
aI242
aI10
aI116
aI116
aI0
aI0
aI0
aI0
aI107
aI192
aI179
aI86
aI0
aI0
aI0
aI0
aI87
aI104
aI145
aI58
aI0
aI0
aI0
aI0
aI10
aI245
aI87
aI9
aI0
aI0
aI0
aI0
aI77
aI249
aI111
aI112
aI0
aI0
aI0
aI0
aI45
aI168
aI8
aI87
aI0
aI0
aI0
aI0
aI252
aI222
aI12
aI204
aI0
aI0
aI0
aI0
aI38
aI205
aI114
aI13
aI0
aI0
aI0
aI0
aI56
aI14
aI101
aI2
aI0
aI0
aI0
aI0
aI253
aI24
aI247
aI226
aI0
aI0
aI0
aI0
aI140
aI11
aI166
aI60
aI0
aI0
aI0
aI0
aI248
aI125
aI36
aI22
aI0
aI0
aI0
aI0
aI169
aI220
aI54
aI190
aI0
aI0
aI0
aI0
aI162
aI52
aI89
aI65
aI0
aI0
aI0
aI0
aI102
aI55
aI252
aI122
aI0
aI0
aI0
aI0
aI181
aI35
aI210
aI251
aI0
aI0
aI0
aI0
aI89
aI12
aI8
aI0
aI0
aI0
aI0
aI0
aI193
aI100
aI191
aI45
aI0
aI0
aI0
aI0
aI99
aI179
aI56
aI46
aI0
aI0
aI0
aI0
aI1
aI164
aI95
aI187
aI0
aI0
aI0
aI0
aI177
aI68
aI234
aI217
aI0
aI0
aI0
aI0
aI4
aI242
aI213
aI122
aI0
aI0
aI0
aI0
aI26
aI5
aI123
aI205
aI0
aI0
aI0
aI0
aI14
aI16
aI131
aI239
aI0
aI0
aI0
aI0
aI36
aI34
aI181
aI84
aI0
aI0
aI0
aI0
aI55
aI4
aI117
aI233
aI0
aI0
aI0
aI0
aI1
aI34
aI214
aI133
aI0
aI0
aI0
aI0
aI91
aI11
aI87
aI80
aI0
aI0
aI0
aI0
aI29
aI215
aI244
aI222
aI0
aI0
aI0
aI0
aI43
aI145
aI33
aI110
aI0
aI0
aI0
aI0
aI97
aI38
aI53
aI121
aI0
aI0
aI0
aI0
aI9
aI214
aI31
aI63
aI0
aI0
aI0
aI0
aI136
aI175
aI189
aI217
aI0
aI0
aI0
aI0
aI19
aI132
aI229
aI74
aI0
aI0
aI0
aI0
aI200
aI73
aI92
aI118
aI0
aI0
aI0
aI0
aI220
aI130
aI171
aI237
aI0
aI0
aI0
aI0
aI219
aI166
aI42
aI104
aI0
aI0
aI0
aI0
aI120
aI6
aI45
aI39
aI0
aI0
aI0
aI0
aI36
aI79
aI220
aI210
aI0
aI0
aI0
aI0
aI255
aI93
aI239
aI231
aI0
aI0
aI0
aI0
aI86
aI191
aI239
aI112
aI0
aI0
aI0
aI0
aI201
aI58
aI161
aI115
aI0
aI0
aI0
aI0
aI110
aI40
aI11
aI202
aI0
aI0
aI0
aI0
aI231
aI8
aI9
aI246
aI0
aI0
aI0
aI0
aI91
aI220
aI42
aI152
aI0
aI0
aI0
aI0
aI138
aI92
aI210
aI208
aI0
aI0
aI0
aI0
aI247
aI139
aI157
aI95
aI0
aI0
aI0
aI0
aI164
aI13
aI77
aI228
aI0
aI0
aI0
aI0
aI182
aI89
aI13
aI191
aI0
aI0
aI0
aI0
aI78
aI79
aI13
aI31
aI0
aI0
aI0
aI0
aI252
aI72
aI239
aI66
aI0
aI0
aI0
aI0
aI7
aI104
aI105
aI169
aI0
aI0
aI0
aI0
aI25
aI114
aI41
aI54
aI0
aI0
aI0
aI0
aI133
aI255
aI210
aI56
aI0
aI0
aI0
aI0
aI10
aI129
aI150
aI156
aI0
aI0
aI0
aI0
aI145
aI13
aI80
aI26
aI0
aI0
aI0
aI0
aI117
aI44
aI46
aI147
aI0
aI0
aI0
aI0
aI64
aI63
aI204
aI152
aI0
aI0
aI0
aI0
aI139
aI98
aI84
aI45
aI0
aI0
aI0
aI0
aI69
aI55
aI173
aI97
aI0
aI0
aI0
aI0
aI27
aI123
aI39
aI105
aI0
aI0
aI0
aI0
aI149
aI37
aI60
aI157
aI0
aI0
aI0
aI0
aI33
aI230
aI224
aI13
aI0
aI0
aI0
aI0
aI66
aI54
aI221
aI165
aI0
aI0
aI0
aI0
aI97
aI155
aI223
aI249
aI0
aI0
aI0
aI0
aI30
aI196
aI10
aI11
aI0
aI0
aI0
aI0
aI132
aI190
aI66
aI107
aI0
aI0
aI0
aI0
aI219
aI7
aI12
aI200
aI0
aI0
aI0
aI0
aI238
aI69
aI134
aI173
aI0
aI0
aI0
aI0
aI242
aI5
aI210
aI42
aI0
aI0
aI0
aI0
aI10
aI184
aI222
aI156
aI0
aI0
aI0
aI0
aI94
aI79
aI127
aI39
aI0
aI0
aI0
aI0
aI254
aI145
aI228
aI244
aI0
aI0
aI0
aI0
aI196
aI69
aI117
aI193
aI0
aI0
aI0
aI0
aI49
aI19
aI164
aI33
aI0
aI0
aI0
aI0
aI228
aI148
aI5
aI140
aI0
aI0
aI0
aI0
aI30
aI58
aI88
aI45
aI0
aI0
aI0
aI0
aI18
aI48
aI37
aI129
aI0
aI0
aI0
aI0
aI254
aI161
aI159
aI164
aI0
aI0
aI0
aI0
aI137
aI105
aI27
aI135
aI0
aI0
aI0
aI0
aI19
aI232
aI51
aI240
aI0
aI0
aI0
aI0
aI106
aI202
aI178
aI174
aI0
aI0
aI0
aI0
aI212
aI146
aI225
aI158
aI0
aI0
aI0
aI0
aI155
aI54
aI163
aI77
aI0
aI0
aI0
aI0
aI128
aI142
aI128
aI133
aI0
aI0
aI0
aI0
aI192
aI43
aI7
aI243
aI0
aI0
aI0
aI0
aI241
aI223
aI27
aI48
aI0
aI0
aI0
aI0
aI79
aI132
aI222
aI179
aI0
aI0
aI0
aI0
aI24
aI12
aI113
aI109
aI0
aI0
aI0
aI0
aI199
aI155
aI148
aI230
aI0
aI0
aI0
aI0
aI0
aI51
aI50
aI207
aI0
aI0
aI0
aI0
aI198
aI9
aI164
aI92
aI0
aI0
aI0
aI0
aI86
aI74
aI240
aI14
aI0
aI0
aI0
aI0
aI31
aI40
aI83
aI162
aI0
aI0
aI0
aI0
aI222
aI207
aI48
aI55
aI0
aI0
aI0
aI0
aI154
aI148
aI190
aI113
aI0
aI0
aI0
aI0
aI238
aI141
aI55
aI202
aI0
aI0
aI0
aI0
aI249
aI234
aI122
aI107
aI0
aI0
aI0
aI0
aI112
aI154
aI206
aI149
aI0
aI0
aI0
aI0
aI62
aI44
aI105
aI134
aI0
aI0
aI0
aI0
aI101
aI63
aI255
aI72
aI0
aI0
aI0
aI0
aI113
aI234
aI147
aI146
aI0
aI0
aI0
aI0
aI173
aI29
aI152
aI57
aI0
aI0
aI0
aI0
aI157
aI101
aI8
aI151
aI0
aI0
aI0
aI0
aI167
aI8
aI174
aI22
aI0
aI0
aI0
aI0
aI66
aI191
aI149
aI158
aI0
aI0
aI0
aI0
aI22
aI134
aI43
aI178
aI0
aI0
aI0
aI0
aI238
aI67
aI13
aI8
aI0
aI0
aI0
aI0
aI203
aI122
aI202
aI14
aI0
aI0
aI0
aI0
aI34
aI50
aI232
aI253
aI0
aI0
aI0
aI0
aI87
aI236
aI17
aI185
aI0
aI0
aI0
aI0
aI19
aI241
aI40
aI95
aI0
aI0
aI0
aI0
aI2
aI212
aI152
aI126
aI0
aI0
aI0
aI0
aI26
aI101
aI20
aI113
aI0
aI0
aI0
aI0
aI218
aI218
aI88
aI195
aI0
aI0
aI0
aI0
aI0
aI240
aI157
aI155
aI0
aI0
aI0
aI0
aI103
aI159
aI23
aI94
aI0
aI0
aI0
aI0
aI201
aI239
aI149
aI64
aI0
aI0
aI0
aI0
aI76
aI116
aI62
aI240
aI0
aI0
aI0
aI0
aI244
aI81
aI91
aI220
aI0
aI0
aI0
aI0
aI12
aI217
aI176
aI220
aI0
aI0
aI0
aI0
aI60
aI188
aI179
aI70
aI0
aI0
aI0
aI0
aI47
aI51
aI18
aI116
aI0
aI0
aI0
aI0
aI149
aI169
aI118
aI46
aI0
aI0
aI0
aI0
aI190
aI146
aI56
aI215
aI0
aI0
aI0
aI0
aI107
aI133
aI48
aI65
aI0
aI0
aI0
aI0
aI209
aI24
aI218
aI241
aI0
aI0
aI0
aI0
aI67
aI23
aI51
aI69
aI0
aI0
aI0
aI0
aI60
aI22
aI19
aI33
aI0
aI0
aI0
aI0
aI218
aI217
aI69
aI22
aI0
aI0
aI0
aI0
aI202
aI153
aI69
aI85
aI0
aI0
aI0
aI0
aI24
aI8
aI48
aI219
aI0
aI0
aI0
aI0
aI55
aI28
aI236
aI200
aI0
aI0
aI0
aI0
aI161
aI144
aI94
aI186
aI0
aI0
aI0
aI0
aI29
aI30
aI246
aI97
aI0
aI0
aI0
aI0
aI111
aI137
aI181
aI57
aI0
aI0
aI0
aI0
aI153
aI133
aI64
aI196
aI0
aI0
aI0
aI0
aI226
aI212
aI98
aI167
aI0
aI0
aI0
aI0
aI50
aI93
aI255
aI178
aI0
aI0
aI0
aI0
aI127
aI191
aI119
aI246
aI0
aI0
aI0
aI0
aI78
aI192
aI55
aI212
aI0
aI0
aI0
aI0
aI105
aI41
aI234
aI62
aI0
aI0
aI0
aI0
aI26
aI173
aI53
aI2
aI0
aI0
aI0
aI0
aI150
aI207
aI174
aI40
aI0
aI0
aI0
aI0
aI175
aI112
aI171
aI195
aI0
aI0
aI0
aI0
aI235
aI151
aI44
aI78
aI0
aI0
aI0
aI0
aI15
aI112
aI129
aI195
aI0
aI0
aI0
aI0
aI206
aI241
aI181
aI30
aI0
aI0
aI0
aI0
aI119
aI127
aI184
aI35
aI0
aI0
aI0
aI0
aI104
aI96
aI192
aI225
aI0
aI0
aI0
aI0
aI155
aI124
aI201
aI81
aI0
aI0
aI0
aI0
aI30
aI13
aI37
aI139
aI0
aI0
aI0
aI0
aI89
aI115
aI93
aI11
aI0
aI0
aI0
aI0
aI21
aI16
aI156
aI126
aI0
aI0
aI0
aI0
aI234
aI114
aI247
aI96
aI0
aI0
aI0
aI0
aI23
aI172
aI88
aI251
aI0
aI0
aI0
aI0
aI18
aI59
aI129
aI153
aI0
aI0
aI0
aI0
aI99
aI223
aI183
aI3
aI0
aI0
aI0
aI0
aI20
aI3
aI98
aI129
aI0
aI0
aI0
aI0
aI224
aI233
aI120
aI50
aI0
aI0
aI0
aI0
aI181
aI23
aI141
aI241
aI0
aI0
aI0
aI0
aI58
aI200
aI25
aI143
aI0
aI0
aI0
aI0
aI215
aI57
aI5
aI4
aI0
aI0
aI0
aI0
aI99
aI224
aI235
aI64
aI0
aI0
aI0
aI0
aI181
aI99
aI166
aI8
aI0
aI0
aI0
aI0
aI146
aI189
aI46
aI136
aI0
aI0
aI0
aI0
aI103
aI40
aI34
aI195
aI0
aI0
aI0
aI0
aI216
aI105
aI6
aI211
aI0
aI0
aI0
aI0
aI78
aI80
aI110
aI87
aI0
aI0
aI0
aI0
aI80
aI185
aI68
aI249
aI0
aI0
aI0
aI0
aI36
aI93
aI75
aI86
aI0
aI0
aI0
aI0
aI179
aI121
aI101
aI138
aI0
aI0
aI0
aI0
aI217
aI75
aI16
aI230
aI0
aI0
aI0
aI0
aI244
aI53
aI76
aI243
aI0
aI0
aI0
aI0
aI77
aI74
aI87
aI147
aI0
aI0
aI0
aI0
aI7
aI223
aI130
aI72
aI0
aI0
aI0
aI0
aI209
aI6
aI181
aI110
aI0
aI0
aI0
aI0
aI98
aI85
aI48
aI252
aI0
aI0
aI0
aI0
aI220
aI94
aI66
aI159
aI0
aI0
aI0
aI0
aI244
aI173
aI121
aI217
aI0
aI0
aI0
aI0
aI233
aI34
aI195
aI49
aI0
aI0
aI0
aI0
aI139
aI126
aI65
aI218
aI0
aI0
aI0
aI0
aI163
aI145
aI234
aI150
aI0
aI0
aI0
aI0
aI109
aI119
aI29
aI176
aI0
aI0
aI0
aI0
aI70
aI10
aI43
aI188
aI0
aI0
aI0
aI0
aI33
aI204
aI127
aI134
aI0
aI0
aI0
aI0
aI13
aI44
aI16
aI209
aI0
aI0
aI0
aI0
aI116
aI118
aI96
aI89
aI0
aI0
aI0
aI0
aI219
aI197
aI174
aI133
aI0
aI0
aI0
aI0
aI82
aI99
aI189
aI85
aI0
aI0
aI0
aI0
aI212
aI79
aI85
aI156
aI0
aI0
aI0
aI0
aI36
aI234
aI70
aI149
aI0
aI0
aI0
aI0
aI213
aI27
aI164
aI186
aI0
aI0
aI0
aI0
aI233
aI179
aI157
aI113
aI0
aI0
aI0
aI0
aI125
aI67
aI35
aI240
aI0
aI0
aI0
aI0
aI116
aI134
aI89
aI118
aI0
aI0
aI0
aI0
aI209
aI226
aI135
aI90
aI0
aI0
aI0
aI0
aI84
aI74
aI244
aI75
aI0
aI0
aI0
aI0
aI52
aI14
aI193
aI207
aI0
aI0
aI0
aI0
aI45
aI27
aI209
aI234
aI0
aI0
aI0
aI0
aI126
aI56
aI132
aI25
aI0
aI0
aI0
aI0
aI200
aI116
aI237
aI222
aI0
aI0
aI0
aI0
aI198
aI86
aI140
aI102
aI0
aI0
aI0
aI0
aI46
aI186
aI96
aI106
aI0
aI0
aI0
aI0
aI55
aI113
aI14
aI188
aI0
aI0
aI0
aI0
aI123
aI163
aI143
aI177
aI0
aI0
aI0
aI0
aI67
aI75
aI99
aI3
aI0
aI0
aI0
aI0
aI57
aI152
aI102
aI245
aI0
aI0
aI0
aI0
aI55
aI124
aI214
aI200
aI0
aI0
aI0
aI0
aI254
aI238
aI192
aI84
aI0
aI0
aI0
aI0
aI203
aI203
aI28
aI160
aI0
aI0
aI0
aI0
aI225
aI42
aI241
aI82
aI0
aI0
aI0
aI0
aI171
aI157
aI34
aI84
aI0
aI0
aI0
aI0
aI168
aI92
aI47
aI54
aI0
aI0
aI0
aI0
aI166
aI55
aI64
aI159
aI0
aI0
aI0
aI0
aI73
aI27
aI172
aI37
aI0
aI0
aI0
aI0
aI194
aI158
aI230
aI53
aI0
aI0
aI0
aI0
aI181
aI156
aI170
aI40
aI0
aI0
aI0
aI0
aI231
aI194
aI131
aI110
aI0
aI0
aI0
aI0
aI148
aI130
aI217
aI129
aI0
aI0
aI0
aI0
aI156
aI35
aI243
aI156
aI0
aI0
aI0
aI0
aI125
aI136
aI95
aI163
aI0
aI0
aI0
aI0
aI129
aI25
aI188
aI251
aI0
aI0
aI0
aI0
aI185
aI170
aI17
aI61
aI0
aI0
aI0
aI0
aI181
aI6
aI63
aI134
aI0
aI0
aI0
aI0
aI248
aI221
aI45
aI97
aI0
aI0
aI0
aI0
aI172
aI205
aI91
aI168
aI0
aI0
aI0
aI0
aI71
aI180
aI47
aI38
aI0
aI0
aI0
aI0
aI73
aI79
aI12
aI7
aI0
aI0
aI0
aI0
aI49
aI84
aI205
aI55
aI0
aI0
aI0
aI0
aI118
aI8
aI24
aI75
aI0
aI0
aI0
aI0
aI227
aI34
aI226
aI204
aI0
aI0
aI0
aI0
aI249
aI151
aI110
aI12
aI0
aI0
aI0
aI0
aI94
aI2
aI187
aI100
aI0
aI0
aI0
aI0
aI184
aI73
aI108
aI60
aI0
aI0
aI0
aI0
aI1
aI149
aI253
aI176
aI0
aI0
aI0
aI0
aI36
aI242
aI84
aI64
aI0
aI0
aI0
aI0
aI140
aI109
aI15
aI192
aI0
aI0
aI0
aI0
aI125
aI210
aI69
aI41
aI0
aI0
aI0
aI0
aI29
aI89
aI249
aI115
aI0
aI0
aI0
aI0
aI208
aI116
aI239
aI183
aI0
aI0
aI0
aI0
aI158
aI11
aI124
aI6
aI0
aI0
aI0
aI0
aI6
aI120
aI13
aI76
aI0
aI0
aI0
aI0
aI175
aI142
aI43
aI65
aI0
aI0
aI0
aI0
aI22
aI163
aI163
aI239
aI0
aI0
aI0
aI0
aI121
aI250
aI248
aI72
aI0
aI0
aI0
aI0
aI192
aI110
aI75
aI157
aI0
aI0
aI0
aI0
aI22
aI115
aI119
aI63
aI0
aI0
aI0
aI0
aI38
aI236
aI179
aI71
aI0
aI0
aI0
aI0
aI249
aI207
aI97
aI213
aI0
aI0
aI0
aI0
aI242
aI172
aI57
aI90
aI0
aI0
aI0
aI0
aI193
aI217
aI109
aI116
aI0
aI0
aI0
aI0
aI208
aI116
aI172
aI38
aI0
aI0
aI0
aI0
aI208
aI17
aI193
aI143
aI0
aI0
aI0
aI0
aI17
aI155
aI172
aI222
aI0
aI0
aI0
aI0
aI243
aI177
aI125
aI133
aI0
aI0
aI0
aI0
aI179
aI54
aI186
aI16
aI0
aI0
aI0
aI0
aI89
aI31
aI33
aI48
aI0
aI0
aI0
aI0
aI163
aI247
aI63
aI187
aI0
aI0
aI0
aI0
aI184
aI191
aI80
aI135
aI0
aI0
aI0
aI0
aI178
aI29
aI68
aI85
aI0
aI0
aI0
aI0
aI126
aI23
aI186
aI117
aI0
aI0
aI0
aI0
aI81
aI213
aI244
aI186
aI0
aI0
aI0
aI0
aI190
aI166
aI150
aI31
aI0
aI0
aI0
aI0
aI187
aI223
aI12
aI31
aI0
aI0
aI0
aI0
aI251
aI28
aI179
aI24
aI0
aI0
aI0
aI0
aI131
aI116
aI232
aI84
aI0
aI0
aI0
aI0
aI205
aI219
aI164
aI105
aI0
aI0
aI0
aI0
aI68
aI49
aI57
aI181
aI0
aI0
aI0
aI0
aI93
aI122
aI136
aI29
aI0
aI0
aI0
aI0
aI17
aI205
aI187
aI233
aI0
aI0
aI0
aI0
aI249
aI135
aI220
aI205
aI0
aI0
aI0
aI0
aI110
aI69
aI226
aI211
aI0
aI0
aI0
aI0
aI51
aI115
aI131
aI239
aI0
aI0
aI0
aI0
aI146
aI136
aI202
aI112
aI0
aI0
aI0
aI0
aI106
aI10
aI161
aI126
aI0
aI0
aI0
aI0
aI151
aI45
aI158
aI51
aI0
aI0
aI0
aI0
aI22
aI244
aI42
aI244
aI0
aI0
aI0
aI0
aI159
aI10
aI215
aI124
aI0
aI0
aI0
aI0
aI15
aI183
aI142
aI63
aI0
aI0
aI0
aI0
aI20
aI146
aI231
aI121
aI0
aI0
aI0
aI0
aI99
aI156
aI241
aI59
aI0
aI0
aI0
aI0
aI83
aI207
aI176
aI71
aI0
aI0
aI0
aI0
aI177
aI183
aI213
aI177
aI0
aI0
aI0
aI0
aI167
aI115
aI141
aI28
aI0
aI0
aI0
aI0
aI195
aI59
aI136
aI215
aI0
aI0
aI0
aI0
aI192
aI193
aI182
aI203
aI0
aI0
aI0
aI0
aI214
aI90
aI42
aI197
aI0
aI0
aI0
aI0
aI233
aI194
aI181
aI9
aI0
aI0
aI0
aI0
aI215
aI170
aI250
aI194
aI0
aI0
aI0
aI0
aI115
aI247
aI178
aI219
aI0
aI0
aI0
aI0
aI255
aI48
aI54
aI202
aI0
aI0
aI0
aI0
aI21
aI96
aI5
aI160
aI0
aI0
aI0
aI0
aI232
aI129
aI112
aI124
aI0
aI0
aI0
aI0
aI197
aI134
aI52
aI209
aI0
aI0
aI0
aI0
aI65
aI84
aI245
aI238
aI0
aI0
aI0
aI0
aI254
aI114
aI68
aI151
aI0
aI0
aI0
aI0
aI58
aI190
aI54
aI242
aI0
aI0
aI0
aI0
aI65
aI12
aI38
aI103
aI0
aI0
aI0
aI0
aI186
aI8
aI107
aI11
aI0
aI0
aI0
aI0
aI44
aI42
aI61
aI248
aI0
aI0
aI0
aI0
aI42
aI116
aI23
aI17
aI0
aI0
aI0
aI0
aI249
aI59
aI243
aI174
aI0
aI0
aI0
aI0
aI114
aI230
aI141
aI62
aI0
aI0
aI0
aI0
aI32
aI127
aI103
aI179
aI0
aI0
aI0
aI0
aI162
aI38
aI45
aI212
aI0
aI0
aI0
aI0
aI28
aI117
aI169
aI227
aI0
aI0
aI0
aI0
aI21
aI150
aI51
aI69
aI0
aI0
aI0
aI0
aI252
aI129
aI178
aI253
aI0
aI0
aI0
aI0
aI76
aI247
aI46
aI102
aI0
aI0
aI0
aI0
aI214
aI153
aI221
aI232
aI0
aI0
aI0
aI0
aI120
aI146
aI30
aI122
aI0
aI0
aI0
aI0
aI241
aI47
aI51
aI226
aI0
aI0
aI0
aI0
aI211
aI92
aI129
aI31
aI0
aI0
aI0
aI0
aI137
aI224
aI170
aI90
aI0
aI0
aI0
aI0
aI254
aI30
aI29
aI100
aI0
aI0
aI0
aI0
aI226
aI226
aI5
aI237
aI0
aI0
aI0
aI0
aI232
aI41
aI43
aI187
aI0
aI0
aI0
aI0
aI16
aI121
aI128
aI174
aI0
aI0
aI0
aI0
aI151
aI102
aI27
aI99
aI0
aI0
aI0
aI0
aI214
aI72
aI17
aI42
aI0
aI0
aI0
aI0
aI39
aI39
aI7
aI168
aI0
aI0
aI0
aI0
aI53
aI193
aI111
aI144
aI0
aI0
aI0
aI0
aI1
aI85
aI201
aI56
aI0
aI0
aI0
aI0
aI46
aI5
aI106
aI159
aI0
aI0
aI0
aI0
aI23
aI83
aI247
aI143
aI0
aI0
aI0
aI0
aI36
aI189
aI130
aI152
aI0
aI0
aI0
aI0
aI243
aI2
aI251
aI25
aI0
aI0
aI0
aI0
aI96
aI225
aI35
aI225
aI0
aI0
aI0
aI0
aI147
aI194
aI223
aI226
aI0
aI0
aI0
aI0
aI71
aI47
aI2
aI12
aI0
aI0
aI0
aI0
aI220
aI151
aI46
aI68
aI0
aI0
aI0
aI0
aI203
aI26
aI232
aI62
aI0
aI0
aI0
aI0
aI220
aI220
aI6
aI95
aI0
aI0
aI0
aI0
aI188
aI64
aI195
aI96
aI0
aI0
aI0
aI0
aI163
aI141
aI44
aI227
aI0
aI0
aI0
aI0
aI234
aI224
aI234
aI239
aI0
aI0
aI0
aI0
aI26
aI212
aI79
aI175
aI0
aI0
aI0
aI0
aI241
aI151
aI38
aI134
aI0
aI0
aI0
aI0
aI100
aI216
aI238
aI128
aI0
aI0
aI0
aI0
aI40
aI9
aI120
aI8
aI0
aI0
aI0
aI0
aI164
aI227
aI76
aI53
aI0
aI0
aI0
aI0
aI109
aI139
aI36
aI220
aI0
aI0
aI0
aI0
aI191
aI162
aI207
aI115
aI0
aI0
aI0
aI0
aI109
aI158
aI223
aI100
aI0
aI0
aI0
aI0
aI119
aI75
aI254
aI61
aI0
aI0
aI0
aI0
aI174
aI72
aI29
aI34
aI0
aI0
aI0
aI0
aI144
aI60
aI94
aI62
aI0
aI0
aI0
aI0
aI50
aI204
aI145
aI125
aI0
aI0
aI0
aI0
aI31
aI41
aI94
aI18
aI0
aI0
aI0
aI0
aI141
aI230
aI217
aI35
aI0
aI0
aI0
aI0
aI163
aI10
aI219
aI196
aI0
aI0
aI0
aI0
aI66
aI239
aI65
aI4
aI0
aI0
aI0
aI0
aI76
aI10
aI74
aI95
aI0
aI0
aI0
aI0
aI63
aI20
aI190
aI64
aI0
aI0
aI0
aI0
aI255
aI188
aI72
aI8
aI0
aI0
aI0
aI0
aI202
aI229
aI170
aI10
aI0
aI0
aI0
aI0
aI36
aI67
aI133
aI118
aI0
aI0
aI0
aI0
aI79
aI208
aI243
aI2
aI0
aI0
aI0
aI0
aI31
aI80
aI176
aI233
aI0
aI0
aI0
aI0
aI115
aI219
aI72
aI76
aI0
aI0
aI0
aI0
aI152
aI193
aI29
aI50
aI0
aI0
aI0
aI0
aI127
aI164
aI95
aI190
aI0
aI0
aI0
aI0
aI46
aI111
aI208
aI77
aI0
aI0
aI0
aI0
aI7
aI234
aI156
aI17
aI0
aI0
aI0
aI0
aI119
aI27
aI225
aI184
aI0
aI0
aI0
aI0
aI212
aI126
aI78
aI14
aI0
aI0
aI0
aI0
aI229
aI126
aI232
aI77
aI0
aI0
aI0
aI0
aI211
aI57
aI233
aI80
aI0
aI0
aI0
aI0
aI88
aI124
aI109
aI127
aI0
aI0
aI0
aI0
aI253
aI150
aI159
aI225
aI0
aI0
aI0
aI0
aI18
aI79
aI41
aI206
aI0
aI0
aI0
aI0
aI76
aI253
aI173
aI228
aI0
aI0
aI0
aI0
aI194
aI163
aI104
aI111
aI0
aI0
aI0
aI0
aI6
aI145
aI219
aI125
aI0
aI0
aI0
aI0
aI170
aI135
aI84
aI117
aI0
aI0
aI0
aI0
aI36
aI23
aI79
aI6
aI0
aI0
aI0
aI0
aI132
aI249
aI198
aI15
aI0
aI0
aI0
aI0
aI162
aI201
aI245
aI119
aI0
aI0
aI0
aI0
aI237
aI37
aI162
aI67
aI0
aI0
aI0
aI0
aI154
aI183
aI60
aI97
aI0
aI0
aI0
aI0
aI240
aI173
aI43
aI205
aI0
aI0
aI0
aI0
aI200
aI61
aI37
aI12
aI0
aI0
aI0
aI0
aI135
aI215
aI83
aI177
aI0
aI0
aI0
aI0
aI94
aI131
aI11
aI135
aI0
aI0
aI0
aI0
aI122
aI209
aI223
aI178
aI0
aI0
aI0
aI0
aI180
aI224
aI221
aI208
aI0
aI0
aI0
aI0
aI119
aI113
aI239
aI186
aI0
aI0
aI0
aI0
aI66
aI179
aI78
aI174
aI0
aI0
aI0
aI0
aI240
aI86
aI80
aI190
aI0
aI0
aI0
aI0
aI180
aI184
aI201
aI36
aI0
aI0
aI0
aI0
aI73
aI106
aI177
aI180
aI0
aI0
aI0
aI0
aI138
aI118
aI201
aI108
aI0
aI0
aI0
aI0
aI220
aI136
aI6
aI204
aI0
aI0
aI0
aI0
aI130
aI245
aI203
aI250
aI0
aI0
aI0
aI0
aI146
aI65
aI157
aI101
aI0
aI0
aI0
aI0
aI213
aI196
aI219
aI166
aI0
aI0
aI0
aI0
aI22
aI172
aI243
aI40
aI0
aI0
aI0
aI0
aI224
aI149
aI109
aI21
aI0
aI0
aI0
aI0
aI12
aI26
aI1
aI24
aI0
aI0
aI0
aI0
aI165
aI254
aI238
aI5
aI0
aI0
aI0
aI0
aI73
aI119
aI124
aI99
aI0
aI0
aI0
aI0
aI68
aI174
aI126
aI99
aI0
aI0
aI0
aI0
aI248
aI232
aI98
aI146
aI0
aI0
aI0
aI0
aI130
aI101
aI67
aI214
aI0
aI0
aI0
aI0
aI183
aI148
aI202
aI147
aI0
aI0
aI0
aI0
aI122
aI168
aI217
aI33
aI0
aI0
aI0
aI0
aI187
aI243
aI220
aI227
aI0
aI0
aI0
aI0
aI53
aI45
aI59
aI125
aI0
aI0
aI0
aI0
aI10
aI79
aI142
aI254
aI0
aI0
aI0
aI0
aI82
aI222
aI146
aI254
aI0
aI0
aI0
aI0
aI249
aI77
aI159
aI244
aI0
aI0
aI0
aI0
aI45
aI159
aI120
aI151
aI0
aI0
aI0
aI0
aI254
aI207
aI58
aI41
aI0
aI0
aI0
aI0
aI35
aI53
aI198
aI80
aI0
aI0
aI0
aI0
aI87
aI171
aI98
aI27
aI0
aI0
aI0
aI0
aI230
aI149
aI66
aI51
aI0
aI0
aI0
aI0
aI87
aI46
aI168
aI159
aI0
aI0
aI0
aI0
aI193
aI209
aI226
aI98
aI0
aI0
aI0
aI0
aI209
aI1
aI23
aI76
aI0
aI0
aI0
aI0
aI243
aI204
aI200
aI177
aI0
aI0
aI0
aI0
aI84
aI186
aI122
aI210
aI0
aI0
aI0
aI0
aI0
aI101
aI221
aI235
aI0
aI0
aI0
aI0
aI232
aI221
aI8
aI248
aI0
aI0
aI0
aI0
aI112
aI166
aI32
aI123
aI0
aI0
aI0
aI0
aI33
aI113
aI55
aI79
aI0
aI0
aI0
aI0
aI220
aI163
aI128
aI153
aI0
aI0
aI0
aI0
aI219
aI208
aI253
aI159
aI0
aI0
aI0
aI0
aI159
aI151
aI189
aI66
aI0
aI0
aI0
aI0
aI128
aI54
aI161
aI185
aI0
aI0
aI0
aI0
aI49
aI124
aI214
aI16
aI0
aI0
aI0
aI0
aI41
aI13
aI24
aI56
aI0
aI0
aI0
aI0
aI42
aI2
aI206
aI30
aI0
aI0
aI0
aI0
aI165
aI73
aI82
aI180
aI0
aI0
aI0
aI0
aI136
aI155
aI57
aI248
aI0
aI0
aI0
aI0
aI194
aI158
aI70
aI102
aI0
aI0
aI0
aI0
aI86
aI232
aI27
aI240
aI0
aI0
aI0
aI0
aI144
aI31
aI35
aI36
aI0
aI0
aI0
aI0
aI42
aI158
aI191
aI215
aI0
aI0
aI0
aI0
aI24
aI157
aI199
aI170
aI0
aI0
aI0
aI0
aI73
aI244
aI161
aI232
aI0
aI0
aI0
aI0
aI227
aI3
aI94
aI209
aI0
aI0
aI0
aI0
aI170
aI24
aI93
aI140
aI0
aI0
aI0
aI0
aI62
aI36
aI243
aI229
aI0
aI0
aI0
aI0
aI2
aI157
aI212
aI15
aI0
aI0
aI0
aI0
aI58
aI176
aI54
aI167
aI0
aI0
aI0
aI0
aI75
aI175
aI61
aI21
aI0
aI0
aI0
aI0
aI14
aI122
aI33
aI28
aI0
aI0
aI0
aI0
aI78
aI100
aI84
aI152
aI0
aI0
aI0
aI0
aI43
aI74
aI209
aI174
aI0
aI0
aI0
aI0
aI26
aI69
aI43
aI228
aI0
aI0
aI0
aI0
aI67
aI87
aI15
aI81
aI0
aI0
aI0
aI0
aI189
aI130
aI160
aI33
aI0
aI0
aI0
aI0
aI86
aI228
aI189
aI126
aI0
aI0
aI0
aI0
aI94
aI109
aI114
aI5
aI0
aI0
aI0
aI0
aI205
aI101
aI54
aI231
aI0
aI0
aI0
aI0
aI46
aI213
aI37
aI63
aI0
aI0
aI0
aI0
aI210
aI82
aI100
aI7
aI0
aI0
aI0
aI0
aI170
aI244
aI65
aI172
aI0
aI0
aI0
aI0
aI238
aI152
aI104
aI143
aI0
aI0
aI0
aI0
aI33
aI82
aI211
aI118
aI0
aI0
aI0
aI0
aI122
aI99
aI130
aI146
aI0
aI0
aI0
aI0
aI207
aI24
aI97
aI241
aI0
aI0
aI0
aI0
aI155
aI154
aI218
aI245
aI0
aI0
aI0
aI0
aI53
aI113
aI104
aI151
aI0
aI0
aI0
aI0
aI9
aI104
aI158
aI164
aI0
aI0
aI0
aI0
aI231
aI206
aI217
aI89
aI0
aI0
aI0
aI0
aI51
aI170
aI79
aI191
aI0
aI0
aI0
aI0
aI242
aI18
aI193
aI137
aI0
aI0
aI0
aI0
aI29
aI46
aI122
aI219
aI0
aI0
aI0
aI0
aI29
aI188
aI96
aI172
aI0
aI0
aI0
aI0
aI63
aI169
aI238
aI34
aI0
aI0
aI0
aI0
aI101
aI227
aI87
aI203
aI0
aI0
aI0
aI0
aI63
aI132
aI225
aI79
aI0
aI0
aI0
aI0
aI114
aI231
aI19
aI153
aI0
aI0
aI0
aI0
aI111
aI253
aI118
aI87
aI0
aI0
aI0
aI0
aI166
aI224
aI246
aI87
aI0
aI0
aI0
aI0
aI158
aI98
aI146
aI8
aI0
aI0
aI0
aI0
aI81
aI106
aI101
aI37
aI0
aI0
aI0
aI0
aI127
aI113
aI34
aI24
aI0
aI0
aI0
aI0
aI110
aI87
aI83
aI19
aI0
aI0
aI0
aI0
aI64
aI120
aI7
aI192
aI0
aI0
aI0
aI0
aI182
aI51
aI126
aI30
aI0
aI0
aI0
aI0
aI219
aI69
aI197
aI245
aI0
aI0
aI0
aI0
aI152
aI25
aI216
aI230
aI0
aI0
aI0
aI0
aI195
aI253
aI195
aI175
aI0
aI0
aI0
aI0
aI98
aI21
aI158
aI222
aI0
aI0
aI0
aI0
aI5
aI37
aI30
aI113
aI0
aI0
aI0
aI0
aI100
aI27
aI185
aI120
aI0
aI0
aI0
aI0
aI164
aI92
aI169
aI123
aI0
aI0
aI0
aI0
aI46
aI35
aI44
aI235
aI0
aI0
aI0
aI0
aI156
aI44
aI99
aI71
aI0
aI0
aI0
aI0
aI115
aI6
aI97
aI119
aI0
aI0
aI0
aI0
aI227
aI32
aI152
aI116
aI0
aI0
aI0
aI0
aI64
aI185
aI91
aI58
aI0
aI0
aI0
aI0
aI134
aI23
aI4
aI153
aI0
aI0
aI0
aI0
aI103
aI255
aI172
aI238
aI0
aI0
aI0
aI0
aI75
aI23
aI67
aI32
aI0
aI0
aI0
aI0
aI22
aI4
aI53
aI249
aI0
aI0
aI0
aI0
aI244
aI127
aI229
aI205
aI0
aI0
aI0
aI0
aI61
aI97
aI157
aI4
aI0
aI0
aI0
aI0
aI91
aI223
aI53
aI120
aI0
aI0
aI0
aI0
aI3
aI130
aI172
aI162
aI0
aI0
aI0
aI0
aI74
aI203
aI254
aI122
aI0
aI0
aI0
aI0
aI25
aI99
aI66
aI117
aI0
aI0
aI0
aI0
aI165
aI12
aI204
aI75
aI0
aI0
aI0
aI0
aI173
aI49
aI167
aI43
aI0
aI0
aI0
aI0
aI92
aI109
aI29
aI173
aI0
aI0
aI0
aI0
aI194
aI87
aI15
aI194
aI0
aI0
aI0
aI0
aI113
aI161
aI149
aI239
aI0
aI0
aI0
aI0
aI13
aI145
aI177
aI137
aI0
aI0
aI0
aI0
aI99
aI124
aI35
aI126
aI0
aI0
aI0
aI0
aI224
aI156
aI168
aI17
aI0
aI0
aI0
aI0
aI106
aI2
aI253
aI34
aI0
aI0
aI0
aI0
aI82
aI242
aI87
aI106
aI0
aI0
aI0
aI0
aI85
aI27
aI25
aI90
aI0
aI0
aI0
aI0
aI186
aI62
aI150
aI23
aI0
aI0
aI0
aI0
aI157
aI6
aI66
aI17
aI0
aI0
aI0
aI0
aI214
aI173
aI168
aI94
aI0
aI0
aI0
aI0
aI37
aI230
aI201
aI178
aI0
aI0
aI0
aI0
aI21
aI54
aI241
aI68
aI0
aI0
aI0
aI0
aI73
aI72
aI74
aI183
aI0
aI0
aI0
aI0
aI206
aI119
aI191
aI114
aI0
aI0
aI0
aI0
aI63
aI249
aI24
aI117
aI0
aI0
aI0
aI0
aI116
aI160
aI79
aI16
aI0
aI0
aI0
aI0
aI235
aI192
aI251
aI67
aI0
aI0
aI0
aI0
aI237
aI152
aI186
aI30
aI0
aI0
aI0
aI0
aI18
aI248
aI148
aI148
aI0
aI0
aI0
aI0
aI76
aI226
aI249
aI75
aI0
aI0
aI0
aI0
aI59
aI157
aI99
aI124
aI0
aI0
aI0
aI0
aI183
aI153
aI192
aI4
aI0
aI0
aI0
aI0
aI248
aI238
aI71
aI91
aI0
aI0
aI0
aI0
aI104
aI131
aI237
aI22
aI0
aI0
aI0
aI0
aI64
aI230
aI239
aI216
aI0
aI0
aI0
aI0
aI24
aI119
aI214
aI14
aI0
aI0
aI0
aI0
aI204
aI115
aI89
aI155
aI0
aI0
aI0
aI0
aI59
aI43
aI194
aI33
aI0
aI0
aI0
aI0
aI19
aI56
aI176
aI251
aI0
aI0
aI0
aI0
aI18
aI132
aI137
aI232
aI0
aI0
aI0
aI0
aI27
aI29
aI117
aI247
aI0
aI0
aI0
aI0
aI87
aI106
aI66
aI136
aI0
aI0
aI0
aI0
aI171
aI217
aI135
aI158
aI0
aI0
aI0
aI0
aI151
aI37
aI106
aI165
aI0
aI0
aI0
aI0
aI191
aI47
aI237
aI152
aI0
aI0
aI0
aI0
aI213
aI219
aI90
aI19
aI0
aI0
aI0
aI0
aI229
aI162
aI214
aI94
aI0
aI0
aI0
aI0
aI166
aI103
aI234
aI34
aI0
aI0
aI0
aI0
aI91
aI78
aI184
aI13
aI0
aI0
aI0
aI0
aI117
aI223
aI67
aI248
aI0
aI0
aI0
aI0
aI72
aI68
aI71
aI220
aI0
aI0
aI0
aI0
aI186
aI235
aI4
aI201
aI0
aI0
aI0
aI0
aI216
aI210
aI192
aI212
aI0
aI0
aI0
aI0
aI121
aI121
aI202
aI63
aI0
aI0
aI0
aI0
aI69
aI233
aI217
aI220
aI0
aI0
aI0
aI0
aI117
aI44
aI62
aI199
aI0
aI0
aI0
aI0
aI127
aI123
aI201
aI19
aI0
aI0
aI0
aI0
aI157
aI47
aI100
aI15
aI0
aI0
aI0
aI0
aI59
aI138
aI121
aI246
aI0
aI0
aI0
aI0
aI15
aI103
aI70
aI125
aI0
aI0
aI0
aI0
aI157
aI3
aI203
aI120
aI0
aI0
aI0
aI0
aI139
aI202
aI158
aI204
aI0
aI0
aI0
aI0
aI212
aI27
aI10
aI238
aI0
aI0
aI0
aI0
aI194
aI74
aI176
aI165
aI0
aI0
aI0
aI0
aI161
aI230
aI104
aI19
aI0
aI0
aI0
aI0
aI97
aI140
aI171
aI160
aI0
aI0
aI0
aI0
aI179
aI76
aI110
aI191
aI0
aI0
aI0
aI0
aI131
aI165
aI235
aI88
aI0
aI0
aI0
aI0
aI130
aI166
aI127
aI236
aI0
aI0
aI0
aI0
aI245
aI120
aI54
aI164
aI0
aI0
aI0
aI0
aI243
aI243
aI221
aI66
aI0
aI0
aI0
aI0
aI161
aI35
aI138
aI114
aI0
aI0
aI0
aI0
aI8
aI89
aI211
aI34
aI0
aI0
aI0
aI0
aI12
aI241
aI231
aI87
aI0
aI0
aI0
aI0
aI235
aI148
aI142
aI238
aI0
aI0
aI0
aI0
aI240
aI56
aI115
aI101
aI0
aI0
aI0
aI0
aI237
aI211
aI78
aI138
aI0
aI0
aI0
aI0
aI0
aI0
aI224
aI121
aI247
aI55
aI234
aI63
aI0
aI0
aI0
aI254
aI27
aI157
aI234
aI63
aI66
aI127
aI205
aI19
aI101
aI52
aI254
aI63
aI0
aI0
aI0
aI0
aI0
aI0
aI0
aI0
atRp22
I0
(L5048L
t(L1L
ttRp23
sbsS'train_steps'
p24
I99950
sS'max_grad_norm'
p25
F194.74985437697921
s.